 test

 Timestamp is 6558bc15 (Sat Nov 18 05:28:53 2023)

 Preferred load address is 0000000180000000

 Start         Length     Name                   Class
 0001:00000000 00053c19H .text                   CODE
 0001:00053c20 00001fe8H .text$x                 CODE
 0001:00055c10 00000365H .text$yc                CODE
 0001:00055f80 000001b5H .text$yd                CODE
 0002:00000000 00000440H .idata$5                DATA
 0002:00000440 00000008H .CRT$XCA                DATA
 0002:00000448 00000018H .CRT$XCC                DATA
 0002:00000460 00000038H .CRT$XCL                DATA
 0002:00000498 00000128H .CRT$XCU                DATA
 0002:000005c0 00000008H .CRT$XCZ                DATA
 0002:000005c8 00000008H .CRT$XIA                DATA
 0002:000005d0 00000018H .CRT$XIC                DATA
 0002:000005e8 00000008H .CRT$XID                DATA
 0002:000005f0 00000008H .CRT$XIZ                DATA
 0002:000005f8 00000008H .CRT$XPA                DATA
 0002:00000600 00000010H .CRT$XPX                DATA
 0002:00000610 00000008H .CRT$XPXA               DATA
 0002:00000618 00000008H .CRT$XPZ                DATA
 0002:00000620 00000008H .CRT$XTA                DATA
 0002:00000628 00000008H .CRT$XTZ                DATA
 0002:00000630 0000efd8H .rdata                  DATA
 0002:0000f608 0000005fH .rdata$debug            DATA
 0002:0000f668 00000774H .rdata$r                DATA
 0002:0000fde0 00000008H .rtc$IAA                DATA
 0002:0000fde8 00000008H .rtc$IZZ                DATA
 0002:0000fdf0 00000008H .rtc$TAA                DATA
 0002:0000fdf8 00000008H .rtc$TZZ                DATA
 0002:0000fe00 0000301cH .xdata                  DATA
 0002:00012e20 00000334H .xdata$x                DATA
 0002:00013154 00000064H .idata$2                DATA
 0002:000131b8 00000014H .idata$3                DATA
 0002:000131d0 00000440H .idata$4                DATA
 0002:00013610 00000a26H .idata$6                DATA
 0002:00014040 0000004fH .edata                  DATA
 0003:00000000 00001f0cH .data                   DATA
 0003:00001f20 00003028H .bss                    DATA
 0004:00000000 000037d4H .pdata                  DATA

  Address         Publics by Value              Rva+Base               Lib:Object

 0000:00000000       ___safe_se_handler_count   0000000000000000     <absolute>
 0000:00000000       ___safe_se_handler_table   0000000000000000     <absolute>
 0000:00000000       __ImageBase                0000000180000000     <linker-defined>
 0001:00000000       ?drawFontSolid@@YAXHHHHHPEBDEEEE0HEEEE@Z 0000000180001000 f i test.obj
 0001:00000340       ?getsize@@YA?AUSDL_Point@@PEAUSDL_Texture@@@Z 0000000180001340 f   test.obj
 0001:00000380       ?loadMedia@@YA_NXZ         0000000180001380 f   test.obj
 0001:000003f0       GameUpdateAndRender        00000001800013f0 f   test.obj
 0001:000037c0       ?endl@std@@YAAEAV?$basic_ostream@DU?$char_traits@D@std@@@1@AEAV21@@Z 00000001800047c0 f i test.obj
 0001:000037f0       ??Bios_base@std@@QEBAPEAXXZ 00000001800047f0 f i test.obj
 0001:00003830       ?fail@ios_base@std@@QEBA_NXZ 0000000180004830 f i test.obj
 0001:00003870       ?rdstate@ios_base@std@@QEBAHXZ 0000000180004870 f i test.obj
 0001:00003870       ?state@?$fpos@H@std@@QEBAHXZ 0000000180004870 f i test.obj
 0001:00003880       ?drawFillRect@@YAXHHHHEEEEH@Z 0000000180004880 f i test.obj
 0001:00003990       ??_D?$basic_ifstream@DU?$char_traits@D@std@@@std@@QEAAXXZ 0000000180004990 f i test.obj
 0001:000039d0       ??_D?$basic_stringstream@DU?$char_traits@D@std@@V?$allocator@D@2@@std@@QEAAXXZ 00000001800049d0 f i test.obj
 0001:00003a10       ??0?$basic_string@DU?$char_traits@D@std@@V?$allocator@D@2@@std@@QEAA@XZ 0000000180004a10 f i test.obj
 0001:00003a60       ??0?$basic_string@DU?$char_traits@D@std@@V?$allocator@D@2@@std@@QEAA@PEBD@Z 0000000180004a60 f i test.obj
 0001:00003ad0       ??0?$basic_string@DU?$char_traits@D@std@@V?$allocator@D@2@@std@@QEAA@$$QEAV01@@Z 0000000180004ad0 f i test.obj
 0001:00003b50       ??1?$basic_string@DU?$char_traits@D@std@@V?$allocator@D@2@@std@@QEAA@XZ 0000000180004b50 f i test.obj
 0001:00003b90       ??4?$basic_string@DU?$char_traits@D@std@@V?$allocator@D@2@@std@@QEAAAEAV01@PEBD@Z 0000000180004b90 f i test.obj
 0001:00003bc0       ?c_str@?$basic_string@DU?$char_traits@D@std@@V?$allocator@D@2@@std@@QEBAPEBDXZ 0000000180004bc0 f i test.obj
 0001:00003be0       ?size@?$basic_string@DU?$char_traits@D@std@@V?$allocator@D@2@@std@@QEBA_KXZ 0000000180004be0 f i test.obj
 0001:00003be0       ?length@?$basic_string@DU?$char_traits@D@std@@V?$allocator@D@2@@std@@QEBA_KXZ 0000000180004be0 f i test.obj
 0001:00003bf0       ?substr@?$basic_string@DU?$char_traits@D@std@@V?$allocator@D@2@@std@@QEBA?AV12@_K0@Z 0000000180004bf0 f i test.obj
 0001:00003c60       ??6?$basic_ostream@DU?$char_traits@D@std@@@std@@QEAAAEAV01@P6AAEAV01@AEAV01@@Z@Z 0000000180004c60 f i test.obj
 0001:00003ca0       ??6?$basic_ostream@DU?$char_traits@D@std@@@std@@QEAAAEAV01@_N@Z 0000000180004ca0 f i test.obj
 0001:00003ec0       ??1locale@std@@QEAA@XZ     0000000180004ec0 f i test.obj
 0001:00003ef0       ?_Decref@facet@locale@std@@QEAAPEAV123@XZ 0000000180004ef0 f i test.obj
 0001:00003f80       ?getloc@ios_base@std@@QEBA?AVlocale@2@XZ 0000000180004f80 f i test.obj
 0001:00003fc0       ??0locale@std@@QEAA@AEBV01@@Z 0000000180004fc0 f i test.obj
 0001:00004000       ?_Incref@facet@locale@std@@QEAAXXZ 0000000180005000 f i test.obj
 0001:00004050       ??6?$basic_ostream@DU?$char_traits@D@std@@@std@@QEAAAEAV01@H@Z 0000000180005050 f i test.obj
 0001:000042e0       ?flags@ios_base@std@@QEBAHXZ 00000001800052e0 f i test.obj
 0001:000042f0       ?put@?$basic_ostream@DU?$char_traits@D@std@@@std@@QEAAAEAV12@D@Z 00000001800052f0 f i test.obj
 0001:00004410       ?eq_int_type@?$char_traits@D@std@@SA_NAEBH0@Z 0000000180005410 f i test.obj
 0001:00004450       ?eof@?$char_traits@D@std@@SAHXZ 0000000180005450 f i test.obj
 0001:00004460       ?flush@?$basic_ostream@DU?$char_traits@D@std@@@std@@QEAAAEAV12@XZ 0000000180005460 f i test.obj
 0001:00004500       ??1?$basic_ios@DU?$char_traits@D@std@@@std@@UEAA@XZ 0000000180005500 f i test.obj
 0001:00004530       ??1ios_base@std@@UEAA@XZ   0000000180005530 f i test.obj
 0001:00004560       ??_Eios_base@std@@UEAAPEAXI@Z 0000000180005560 f i test.obj
 0001:00004560       ??_Gios_base@std@@UEAAPEAXI@Z 0000000180005560 f i test.obj
 0001:000045a0       ?setstate@?$basic_ios@DU?$char_traits@D@std@@@std@@QEAAXH_N@Z 00000001800055a0 f i test.obj
 0001:000045e0       ?rdbuf@?$basic_ios@DU?$char_traits@D@std@@@std@@QEBAPEAV?$basic_streambuf@DU?$char_traits@D@std@@@2@XZ 00000001800055e0 f i test.obj
 0001:000045f0       ??5?$basic_istream@DU?$char_traits@D@std@@@std@@QEAAAEAV01@AEA_N@Z 00000001800055f0 f i test.obj
 0001:00004800       ??1sentry@?$basic_istream@DU?$char_traits@D@std@@@std@@QEAA@XZ 0000000180005800 f i test.obj
 0001:00004820       ??5?$basic_istream@DU?$char_traits@D@std@@@std@@QEAAAEAV01@AEAH@Z 0000000180005820 f i test.obj
 0001:00004a70       ??0sentry@?$basic_istream@DU?$char_traits@D@std@@@std@@QEAA@AEAV12@_N@Z 0000000180005a70 f i test.obj
 0001:00004ac0       ??1_Sentry_base@?$basic_ostream@DU?$char_traits@D@std@@@std@@QEAA@XZ 0000000180005ac0 f i test.obj
 0001:00004ac0       ??1_Sentry_base@?$basic_istream@DU?$char_traits@D@std@@@std@@QEAA@XZ 0000000180005ac0 f i test.obj
 0001:00004b30       ??0?$basic_ifstream@DU?$char_traits@D@std@@@std@@QEAA@AEBV?$basic_string@DU?$char_traits@D@std@@V?$allocator@D@2@@1@HH@Z 0000000180005b30 f i test.obj
 0001:00004c50       ??1?$basic_istream@DU?$char_traits@D@std@@@std@@UEAA@XZ 0000000180005c50 f i test.obj
 0001:00004c80       ??1?$basic_ifstream@DU?$char_traits@D@std@@@std@@UEAA@XZ 0000000180005c80 f i test.obj
 0001:00004cf0       ?is_open@?$basic_ifstream@DU?$char_traits@D@std@@@std@@QEBA_NXZ 0000000180005cf0 f i test.obj
 0001:00004d10       ?open@?$basic_ifstream@DU?$char_traits@D@std@@@std@@QEAAXPEBDHH@Z 0000000180005d10 f i test.obj
 0001:00004db0       ?close@?$basic_ifstream@DU?$char_traits@D@std@@@std@@QEAAXXZ 0000000180005db0 f i test.obj
 0001:00004e00       ??1?$basic_filebuf@DU?$char_traits@D@std@@@std@@UEAA@XZ 0000000180005e00 f i test.obj
 0001:00004e70       ??1?$basic_streambuf@DU?$char_traits@D@std@@@std@@UEAA@XZ 0000000180005e70 f i test.obj
 0001:00004ec0       ?_Lock@?$basic_streambuf@DU?$char_traits@D@std@@@std@@UEAAXXZ 0000000180005ec0 f i test.obj
 0001:00004ee0       ?_Unlock@?$basic_streambuf@DU?$char_traits@D@std@@@std@@UEAAXXZ 0000000180005ee0 f i test.obj
 0001:00004f00       ?pbackfail@?$basic_streambuf@DU?$char_traits@D@std@@@std@@MEAAHH@Z 0000000180005f00 f i test.obj
 0001:00004f00       ?overflow@?$basic_streambuf@DU?$char_traits@D@std@@@std@@MEAAHH@Z 0000000180005f00 f i test.obj
 0001:00004f20       ?underflow@?$basic_streambuf@DU?$char_traits@D@std@@@std@@MEAAHXZ 0000000180005f20 f i test.obj
 0001:00004f40       ?uflow@?$basic_streambuf@DU?$char_traits@D@std@@@std@@MEAAHXZ 0000000180005f40 f i test.obj
 0001:00004fb0       ?xsgetn@?$basic_streambuf@DU?$char_traits@D@std@@@std@@MEAA_JPEAD_J@Z 0000000180005fb0 f i test.obj
 0001:00005100       ?copy@?$char_traits@D@std@@SAPEADPEADPEBD_K@Z 0000000180006100 f i test.obj
 0001:00005130       ?failed@?$ostreambuf_iterator@DU?$char_traits@D@std@@@std@@QEBA_NXZ 0000000180006130 f i test.obj
 0001:00005130       ?to_int_type@?$char_traits@D@std@@SAHAEBD@Z 0000000180006130 f i test.obj
 0001:00005130       ?to_char_type@?$char_traits@D@std@@SADAEBH@Z 0000000180006130 f i test.obj
 0001:00005140       ?xsputn@?$basic_streambuf@DU?$char_traits@D@std@@@std@@MEAA_JPEBD_J@Z 0000000180006140 f i test.obj
 0001:00005290       ?seekpos@?$basic_streambuf@DU?$char_traits@D@std@@@std@@MEAA?AV?$fpos@H@2@V32@H@Z 0000000180006290 f i test.obj
 0001:00005290       ?seekoff@?$basic_streambuf@DU?$char_traits@D@std@@@std@@MEAA?AV?$fpos@H@2@_JHH@Z 0000000180006290 f i test.obj
 0001:000052d0       ?setbuf@?$basic_streambuf@DU?$char_traits@D@std@@@std@@MEAAPEAV12@PEAD_J@Z 00000001800062d0 f i test.obj
 0001:000052f0       ?imbue@?$basic_streambuf@DU?$char_traits@D@std@@@std@@MEAAXAEBVlocale@2@@Z 00000001800062f0 f i test.obj
 0001:000052f0       ?_Init@?$codecvt@DDH@std@@IEAAXAEBV_Locinfo@2@@Z 00000001800062f0 f i test.obj
 0001:000052f0       ??3@YAXPEAX0@Z             00000001800062f0 f i test.obj
 0001:00005300       ?_Lock@?$basic_filebuf@DU?$char_traits@D@std@@@std@@UEAAXXZ 0000000180006300 f i test.obj
 0001:00005330       ?_Unlock@?$basic_filebuf@DU?$char_traits@D@std@@@std@@UEAAXXZ 0000000180006330 f i test.obj
 0001:00005360       ?overflow@?$basic_filebuf@DU?$char_traits@D@std@@@std@@MEAAHH@Z 0000000180006360 f i test.obj
 0001:000058f0       ?not_eof@?$char_traits@D@std@@SAHAEBH@Z 00000001800068f0 f i test.obj
 0001:00005940       ??$_Fputc@D@std@@YA_NDPEAU_iobuf@@@Z 0000000180006940 f i test.obj
 0001:00005980       ?pbackfail@?$basic_filebuf@DU?$char_traits@D@std@@@std@@MEAAHH@Z 0000000180006980 f i test.obj
 0001:00005b00       ??$_Ungetc@D@std@@YA_NAEBDPEAU_iobuf@@@Z 0000000180006b00 f i test.obj
 0001:00005b50       ?underflow@?$basic_filebuf@DU?$char_traits@D@std@@@std@@MEAAHXZ 0000000180006b50 f i test.obj
 0001:00005c00       ?uflow@?$basic_filebuf@DU?$char_traits@D@std@@@std@@MEAAHXZ 0000000180006c00 f i test.obj
 0001:00006130       ??$_Fgetc@D@std@@YA_NAEADPEAU_iobuf@@@Z 0000000180007130 f i test.obj
 0001:00006170       ?seekoff@?$basic_filebuf@DU?$char_traits@D@std@@@std@@MEAA?AV?$fpos@H@2@_JHH@Z 0000000180007170 f i test.obj
 0001:00006280       ?seekpos@?$basic_filebuf@DU?$char_traits@D@std@@@std@@MEAA?AV?$fpos@H@2@V32@H@Z 0000000180007280 f i test.obj
 0001:000063a0       ?setbuf@?$basic_filebuf@DU?$char_traits@D@std@@@std@@MEAAPEAV?$basic_streambuf@DU?$char_traits@D@std@@@2@PEAD_J@Z 00000001800073a0 f i test.obj
 0001:00006440       ?sync@?$basic_filebuf@DU?$char_traits@D@std@@@std@@MEAAHXZ 0000000180007440 f i test.obj
 0001:000064d0       ?imbue@?$basic_filebuf@DU?$char_traits@D@std@@@std@@MEAAXAEBVlocale@2@@Z 00000001800074d0 f i test.obj
 0001:00006500       ?open@?$basic_ofstream@DU?$char_traits@D@std@@@std@@QEAAXPEBDHH@Z 0000000180007500 f i test.obj
 0001:000065a0       ?close@?$basic_ofstream@DU?$char_traits@D@std@@@std@@QEAAXXZ 00000001800075a0 f i test.obj
 0001:000065f0       ??0?$basic_stringstream@DU?$char_traits@D@std@@V?$allocator@D@2@@std@@QEAA@AEBV?$basic_string@DU?$char_traits@D@std@@V?$allocator@D@2@@1@H@Z 00000001800075f0 f i test.obj
 0001:000066c0       ??1?$basic_stringstream@DU?$char_traits@D@std@@V?$allocator@D@2@@std@@UEAA@XZ 00000001800076c0 f i test.obj
 0001:00006730       ??1?$basic_iostream@DU?$char_traits@D@std@@@std@@UEAA@XZ 0000000180007730 f i test.obj
 0001:00006790       ??1?$basic_ostream@DU?$char_traits@D@std@@@std@@UEAA@XZ 0000000180007790 f i test.obj
 0001:000067c0       ??1?$basic_stringbuf@DU?$char_traits@D@std@@V?$allocator@D@2@@std@@UEAA@XZ 00000001800077c0 f i test.obj
 0001:00006800       ?overflow@?$basic_stringbuf@DU?$char_traits@D@std@@V?$allocator@D@2@@std@@MEAAHH@Z 0000000180007800 f i test.obj
 0001:00006cf0       ?pbackfail@?$basic_stringbuf@DU?$char_traits@D@std@@V?$allocator@D@2@@std@@MEAAHH@Z 0000000180007cf0 f i test.obj
 0001:00006e00       ?eq@?$char_traits@D@std@@SA_NAEBD0@Z 0000000180007e00 f i test.obj
 0001:00006e40       ?underflow@?$basic_stringbuf@DU?$char_traits@D@std@@V?$allocator@D@2@@std@@MEAAHXZ 0000000180007e40 f i test.obj
 0001:00006f80       ?seekoff@?$basic_stringbuf@DU?$char_traits@D@std@@V?$allocator@D@2@@std@@MEAA?AV?$fpos@H@2@_JHH@Z 0000000180007f80 f i test.obj
 0001:000072a0       ?seekpos@?$basic_stringbuf@DU?$char_traits@D@std@@V?$allocator@D@2@@std@@MEAA?AV?$fpos@H@2@V32@H@Z 00000001800082a0 f i test.obj
 0001:000074c0       ??1?$_String_iterator@DU?$char_traits@D@std@@V?$allocator@D@2@@std@@QEAA@XZ 00000001800084c0 f i test.obj
 0001:000074e0       ??1?$_String_const_iterator@DU?$char_traits@D@std@@V?$allocator@D@2@@std@@QEAA@XZ 00000001800084e0 f i test.obj
 0001:00007500       ??_G?$basic_ostream@DU?$char_traits@D@std@@@std@@UEAAPEAXI@Z 0000000180008500 f i test.obj
 0001:00007500       ??_E?$basic_ostream@DU?$char_traits@D@std@@@std@@UEAAPEAXI@Z 0000000180008500 f i test.obj
 0001:00007550       ??_E?$basic_ios@DU?$char_traits@D@std@@@std@@UEAAPEAXI@Z 0000000180008550 f i test.obj
 0001:00007550       ??_G?$basic_ios@DU?$char_traits@D@std@@@std@@UEAAPEAXI@Z 0000000180008550 f i test.obj
 0001:00007590       ??_G?$basic_istream@DU?$char_traits@D@std@@@std@@UEAAPEAXI@Z 0000000180008590 f i test.obj
 0001:00007590       ??_E?$basic_istream@DU?$char_traits@D@std@@@std@@UEAAPEAXI@Z 0000000180008590 f i test.obj
 0001:000075e0       ??_E?$basic_streambuf@DU?$char_traits@D@std@@@std@@UEAAPEAXI@Z 00000001800085e0 f i test.obj
 0001:000075e0       ??_G?$basic_streambuf@DU?$char_traits@D@std@@@std@@UEAAPEAXI@Z 00000001800085e0 f i test.obj
 0001:00007620       ??_G?$basic_ifstream@DU?$char_traits@D@std@@@std@@UEAAPEAXI@Z 0000000180008620 f i test.obj
 0001:00007620       ??_E?$basic_ifstream@DU?$char_traits@D@std@@@std@@UEAAPEAXI@Z 0000000180008620 f i test.obj
 0001:00007670       ??_G?$basic_filebuf@DU?$char_traits@D@std@@@std@@UEAAPEAXI@Z 0000000180008670 f i test.obj
 0001:00007670       ??_E?$basic_filebuf@DU?$char_traits@D@std@@@std@@UEAAPEAXI@Z 0000000180008670 f i test.obj
 0001:000076b0       ??_E?$basic_stringstream@DU?$char_traits@D@std@@V?$allocator@D@2@@std@@UEAAPEAXI@Z 00000001800086b0 f i test.obj
 0001:000076b0       ??_G?$basic_stringstream@DU?$char_traits@D@std@@V?$allocator@D@2@@std@@UEAAPEAXI@Z 00000001800086b0 f i test.obj
 0001:00007700       ??_E?$basic_iostream@DU?$char_traits@D@std@@@std@@UEAAPEAXI@Z 0000000180008700 f i test.obj
 0001:00007700       ??_G?$basic_iostream@DU?$char_traits@D@std@@@std@@UEAAPEAXI@Z 0000000180008700 f i test.obj
 0001:00007750       ??_G?$basic_stringbuf@DU?$char_traits@D@std@@V?$allocator@D@2@@std@@UEAAPEAXI@Z 0000000180008750 f i test.obj
 0001:00007750       ??_E?$basic_stringbuf@DU?$char_traits@D@std@@V?$allocator@D@2@@std@@UEAAPEAXI@Z 0000000180008750 f i test.obj
 0001:00007790       ??1?$_Iterator012@Urandom_access_iterator_tag@std@@D_JPEBDAEBDU_Iterator_base12@2@@std@@QEAA@XZ 0000000180008790 f i test.obj
 0001:000077b0       ??1_Iterator_base12@std@@QEAA@XZ 00000001800087b0 f i test.obj
 0001:000077f0       ?_Orphan_me@_Iterator_base12@std@@QEAAXXZ 00000001800087f0 f i test.obj
 0001:00007890       ??_D?$basic_ostream@DU?$char_traits@D@std@@@std@@QEAAXXZ 0000000180008890 f i test.obj
 0001:000078c0       ??_D?$basic_istream@DU?$char_traits@D@std@@@std@@QEAAXXZ 00000001800088c0 f i test.obj
 0001:000078f0       ??_D?$basic_iostream@DU?$char_traits@D@std@@@std@@QEAAXXZ 00000001800088f0 f i test.obj
 0001:00007920       ??0?$basic_string@DU?$char_traits@D@std@@V?$allocator@D@2@@std@@QEAA@AEBV01@_K1AEBV?$allocator@D@1@@Z 0000000180008920 f i test.obj
 0001:000079a0       ??0?$basic_string@DU?$char_traits@D@std@@V?$allocator@D@2@@std@@QEAA@_KD@Z 00000001800089a0 f i test.obj
 0001:00007a10       ?assign@?$basic_string@DU?$char_traits@D@std@@V?$allocator@D@2@@std@@QEAAAEAV12@$$QEAV12@@Z 0000000180008a10 f i test.obj
 0001:00007b50       ?move@?$char_traits@D@std@@SAPEADPEADPEBD_K@Z 0000000180008b50 f i test.obj
 0001:00007b80       ??4?$basic_string@DU?$char_traits@D@std@@V?$allocator@D@2@@std@@QEAAAEAV01@AEBV01@@Z 0000000180008b80 f i test.obj
 0001:00007bb0       ?append@?$basic_string@DU?$char_traits@D@std@@V?$allocator@D@2@@std@@QEAAAEAV12@_KD@Z 0000000180008bb0 f i test.obj
 0001:00007c60       ?assign@?$basic_string@DU?$char_traits@D@std@@V?$allocator@D@2@@std@@QEAAAEAV12@AEBV12@@Z 0000000180008c60 f i test.obj
 0001:00007c90       ?assign@?$basic_string@DU?$char_traits@D@std@@V?$allocator@D@2@@std@@QEAAAEAV12@PEBD@Z 0000000180008c90 f i test.obj
 0001:00007ce0       ?length@?$char_traits@D@std@@SA_KPEBD@Z 0000000180008ce0 f i test.obj
 0001:00007d10       ?erase@?$basic_string@DU?$char_traits@D@std@@V?$allocator@D@2@@std@@QEAAAEAV12@_K0@Z 0000000180008d10 f i test.obj
 0001:00007e10       ?begin@?$basic_string@DU?$char_traits@D@std@@V?$allocator@D@2@@std@@QEAA?AV?$_String_iterator@DU?$char_traits@D@std@@V?$allocator@D@2@@2@XZ 0000000180008e10 f i test.obj
 0001:00007e60       ?get_allocator@?$basic_string@DU?$char_traits@D@std@@V?$allocator@D@2@@std@@QEBA?AV?$allocator@D@2@XZ 0000000180008e60 f i test.obj
 0001:00007e90       ?_Tidy@?$basic_string@DU?$char_traits@D@std@@V?$allocator@D@2@@std@@QEAAX_N_K@Z 0000000180008e90 f i test.obj
 0001:00007f30       ?_Myptr@?$basic_string@DU?$char_traits@D@std@@V?$allocator@D@2@@std@@QEBAPEBDXZ 0000000180008f30 f i test.obj
 0001:00007f30       ?_Myptr@?$basic_string@DU?$char_traits@D@std@@V?$allocator@D@2@@std@@QEAAPEADXZ 0000000180008f30 f i test.obj
 0001:00007f70       ??0?$_String_val@DV?$allocator@D@std@@@std@@QEAA@V?$allocator@D@1@@Z 0000000180008f70 f i test.obj
 0001:00008010       ??0_Container_base12@std@@QEAA@XZ 0000000180009010 f i test.obj
 0001:00008030       ??1_Container_base12@std@@QEAA@XZ 0000000180009030 f i test.obj
 0001:00008050       ?_Orphan_all@_Container_base12@std@@QEAAXXZ 0000000180009050 f i test.obj
 0001:000080e0       ??1?$_String_val@DV?$allocator@D@std@@@std@@QEAA@XZ 00000001800090e0 f i test.obj
 0001:00008160       ?allocate@?$allocator@D@std@@QEAAPEAD_K@Z 0000000180009160 f i test.obj
 0001:00008180       ?clear@?$basic_ios@DU?$char_traits@D@std@@@std@@QEAAXH_N@Z 0000000180009180 f i test.obj
 0001:000081d0       ?clear@ios_base@std@@QEAAXH_N@Z 00000001800091d0 f i test.obj
 0001:00008330       ??0runtime_error@std@@QEAA@AEBV01@@Z 0000000180009330 f i test.obj
 0001:00008370       ??1runtime_error@std@@UEAA@XZ 0000000180009370 f i test.obj
 0001:00008370       ??1logic_error@std@@UEAA@XZ 0000000180009370 f i libcpmtd:xthrow.obj
 0001:00008390       ?make_error_code@std@@YA?AVerror_code@1@W4io_errc@31@@Z 0000000180009390 f i test.obj
 0001:000083c0       ??0failure@ios_base@std@@QEAA@PEBDAEBVerror_code@2@@Z 00000001800093c0 f i test.obj
 0001:00008420       ??0system_error@std@@QEAA@Verror_code@1@PEBD@Z 0000000180009420 f i test.obj
 0001:000084a0       ??0runtime_error@std@@QEAA@PEBD@Z 00000001800094a0 f i test.obj
 0001:000084e0       ?_Makestr@system_error@std@@AEAAXXZ 00000001800094e0 f i test.obj
 0001:000084e0       ??$_Destroy@U_Container_proxy@std@@@std@@YAXPEAU_Container_proxy@0@@Z 00000001800094e0 f i test.obj
 0001:000084f0       ??1system_error@std@@UEAA@XZ 00000001800094f0 f i test.obj
 0001:000084f0       ??1out_of_range@std@@UEAA@XZ 00000001800094f0 f i libcpmtd:xthrow.obj
 0001:000084f0       ??1length_error@std@@UEAA@XZ 00000001800094f0 f i libcpmtd:xthrow.obj
 0001:00008510       ??_Efailure@ios_base@std@@UEAAPEAXI@Z 0000000180009510 f i test.obj
 0001:00008510       ??_Gfailure@ios_base@std@@UEAAPEAXI@Z 0000000180009510 f i test.obj
 0001:00008550       ??1failure@ios_base@std@@UEAA@XZ 0000000180009550 f i test.obj
 0001:00008570       ??0failure@ios_base@std@@QEAA@AEBV012@@Z 0000000180009570 f i test.obj
 0001:000085b0       ??0system_error@std@@QEAA@AEBV01@@Z 00000001800095b0 f i test.obj
 0001:00008620       ?fill@?$basic_ios@DU?$char_traits@D@std@@@std@@QEBADXZ 0000000180009620 f i test.obj
 0001:00008630       ??0?$basic_ios@DU?$char_traits@D@std@@@std@@IEAA@XZ 0000000180009630 f i test.obj
 0001:00008660       ??0ios_base@std@@IEAA@XZ   0000000180009660 f i test.obj
 0001:00008680       ??0?$basic_istream@DU?$char_traits@D@std@@@std@@QEAA@PEAV?$basic_streambuf@DU?$char_traits@D@std@@@1@_N@Z 0000000180009680 f i test.obj
 0001:00008740       ?_Ipfx@?$basic_istream@DU?$char_traits@D@std@@@std@@QEAA_N_N@Z 0000000180009740 f i test.obj
 0001:000089f0       ?is@?$ctype@D@std@@QEBA_NFD@Z 00000001800099f0 f i test.obj
 0001:00008a40       ?good@ios_base@std@@QEBA_NXZ 0000000180009a40 f i test.obj
 0001:00008a80       ?sgetc@?$basic_streambuf@DU?$char_traits@D@std@@@std@@QEAAHXZ 0000000180009a80 f i test.obj
 0001:00008ad0       ?snextc@?$basic_streambuf@DU?$char_traits@D@std@@@std@@QEAAHXZ 0000000180009ad0 f i test.obj
 0001:00008b60       ??0_Sentry_base@?$basic_istream@DU?$char_traits@D@std@@@std@@QEAA@AEAV12@@Z 0000000180009b60 f i test.obj
 0001:00008b60       ??0_Sentry_base@?$basic_ostream@DU?$char_traits@D@std@@@std@@QEAA@AEAV12@@Z 0000000180009b60 f i test.obj
 0001:00008be0       ?pubsync@?$basic_streambuf@DU?$char_traits@D@std@@@std@@QEAAHXZ 0000000180009be0 f i test.obj
 0001:00008c00       ?sbumpc@?$basic_streambuf@DU?$char_traits@D@std@@@std@@QEAAHXZ 0000000180009c00 f i test.obj
 0001:00008c50       ?sputc@?$basic_streambuf@DU?$char_traits@D@std@@@std@@QEAAHD@Z 0000000180009c50 f i test.obj
 0001:00008cd0       ?eback@?$basic_streambuf@DU?$char_traits@D@std@@@std@@IEBAPEADXZ 0000000180009cd0 f i test.obj
 0001:00008cf0       ?gptr@?$basic_streambuf@DU?$char_traits@D@std@@@std@@IEBAPEADXZ 0000000180009cf0 f i test.obj
 0001:00008d10       ?pbase@?$basic_streambuf@DU?$char_traits@D@std@@@std@@IEBAPEADXZ 0000000180009d10 f i test.obj
 0001:00008d30       ?pptr@?$basic_streambuf@DU?$char_traits@D@std@@@std@@IEBAPEADXZ 0000000180009d30 f i test.obj
 0001:00008d50       ?egptr@?$basic_streambuf@DU?$char_traits@D@std@@@std@@IEBAPEADXZ 0000000180009d50 f i test.obj
 0001:00008d80       ?gbump@?$basic_streambuf@DU?$char_traits@D@std@@@std@@IEAAXH@Z 0000000180009d80 f i test.obj
 0001:00008dd0       ?setg@?$basic_streambuf@DU?$char_traits@D@std@@@std@@IEAAXPEAD00@Z 0000000180009dd0 f i test.obj
 0001:00008e30       ?epptr@?$basic_streambuf@DU?$char_traits@D@std@@@std@@IEBAPEADXZ 0000000180009e30 f i test.obj
 0001:00008e60       ?_Gndec@?$basic_streambuf@DU?$char_traits@D@std@@@std@@IEAAPEADXZ 0000000180009e60 f i test.obj
 0001:00008eb0       ?_Gninc@?$basic_streambuf@DU?$char_traits@D@std@@@std@@IEAAPEADXZ 0000000180009eb0 f i test.obj
 0001:00008f10       ?_Gnpreinc@?$basic_streambuf@DU?$char_traits@D@std@@@std@@IEAAPEADXZ 0000000180009f10 f i test.obj
 0001:00008f60       ?_Gnavail@?$basic_streambuf@DU?$char_traits@D@std@@@std@@IEBA_JXZ 0000000180009f60 f i test.obj
 0001:00008fa0       ?pbump@?$basic_streambuf@DU?$char_traits@D@std@@@std@@IEAAXH@Z 0000000180009fa0 f i test.obj
 0001:00008ff0       ?setp@?$basic_streambuf@DU?$char_traits@D@std@@@std@@IEAAXPEAD0@Z 0000000180009ff0 f i test.obj
 0001:00009040       ?setp@?$basic_streambuf@DU?$char_traits@D@std@@@std@@IEAAXPEAD00@Z 000000018000a040 f i test.obj
 0001:000090a0       ?_Pninc@?$basic_streambuf@DU?$char_traits@D@std@@@std@@IEAAPEADXZ 000000018000a0a0 f i test.obj
 0001:00009100       ?_Pnavail@?$basic_streambuf@DU?$char_traits@D@std@@@std@@IEBA_JXZ 000000018000a100 f i test.obj
 0001:00009140       ??0?$basic_filebuf@DU?$char_traits@D@std@@@std@@QEAA@PEAU_iobuf@@@Z 000000018000a140 f i test.obj
 0001:00009190       ?is_open@?$basic_filebuf@DU?$char_traits@D@std@@@std@@QEBA_NXZ 000000018000a190 f i test.obj
 0001:000091d0       ?open@?$basic_filebuf@DU?$char_traits@D@std@@@std@@QEAAPEAV12@PEBDHH@Z 000000018000a1d0 f i test.obj
 0001:00009290       ?close@?$basic_filebuf@DU?$char_traits@D@std@@@std@@QEAAPEAV12@XZ 000000018000a290 f i test.obj
 0001:00009320       ?_Init@?$basic_filebuf@DU?$char_traits@D@std@@@std@@IEAAXPEAU_iobuf@@W4_Initfl@12@@Z 000000018000a320 f i test.obj
 0001:00009460       ?_Endwrite@?$basic_filebuf@DU?$char_traits@D@std@@@std@@IEAA_NXZ 000000018000a460 f i test.obj
 0001:00009870       ?_Initcvt@?$basic_filebuf@DU?$char_traits@D@std@@@std@@IEAAXPEBV?$codecvt@DDH@2@@Z 000000018000a870 f i test.obj
 0001:000098d0       ?decimal_point@?$numpunct@D@std@@QEBADXZ 000000018000a8d0 f i test.obj
 0001:000098d0       ?always_noconv@codecvt_base@std@@QEBA_NXZ 000000018000a8d0 f i test.obj
 0001:000098f0       ?_Reset_back@?$basic_filebuf@DU?$char_traits@D@std@@@std@@AEAAXXZ 000000018000a8f0 f i test.obj
 0001:00009940       ?_Set_back@?$basic_filebuf@DU?$char_traits@D@std@@@std@@AEAAXXZ 000000018000a940 f i test.obj
 0001:000099d0       ??0?$basic_iostream@DU?$char_traits@D@std@@@std@@QEAA@PEAV?$basic_streambuf@DU?$char_traits@D@std@@@1@@Z 000000018000a9d0 f i test.obj
 0001:00009a90       ??0?$basic_stringbuf@DU?$char_traits@D@std@@V?$allocator@D@2@@std@@QEAA@AEBV?$basic_string@DU?$char_traits@D@std@@V?$allocator@D@2@@1@H@Z 000000018000aa90 f i test.obj
 0001:00009b30       ?_Tidy@?$basic_stringbuf@DU?$char_traits@D@std@@V?$allocator@D@2@@std@@IEAAXXZ 000000018000ab30 f i test.obj
 0001:00009c00       ??D?$_String_iterator@DU?$char_traits@D@std@@V?$allocator@D@2@@std@@QEBAAEADXZ 000000018000ac00 f i test.obj
 0001:00009c20       ??0sentry@?$basic_ostream@DU?$char_traits@D@std@@@std@@QEAA@AEAV12@@Z 000000018000ac20 f i test.obj
 0001:00009cf0       ??1sentry@?$basic_ostream@DU?$char_traits@D@std@@@std@@QEAA@XZ 000000018000acf0 f i test.obj
 0001:00009d30       ??Bsentry@?$basic_ostream@DU?$char_traits@D@std@@@std@@QEBAPEQ_Bool_struct@2@HXZ 000000018000ad30 f i test.obj
 0001:00009d30       ??Bsentry@?$basic_istream@DU?$char_traits@D@std@@@std@@QEBAPEQ_Bool_struct@2@HXZ 000000018000ad30 f i test.obj
 0001:00009d60       ?put@?$num_put@DV?$ostreambuf_iterator@DU?$char_traits@D@std@@@std@@@std@@QEBA?AV?$ostreambuf_iterator@DU?$char_traits@D@std@@@2@V32@AEAVios_base@2@D_N@Z 000000018000ad60 f i test.obj
 0001:00009de0       ?put@?$num_put@DV?$ostreambuf_iterator@DU?$char_traits@D@std@@@std@@@std@@QEBA?AV?$ostreambuf_iterator@DU?$char_traits@D@std@@@2@V32@AEAVios_base@2@DJ@Z 000000018000ade0 f i test.obj
 0001:00009e50       ??0?$ostreambuf_iterator@DU?$char_traits@D@std@@@std@@QEAA@PEAV?$basic_streambuf@DU?$char_traits@D@std@@@1@@Z 000000018000ae50 f i test.obj
 0001:00009e80       ?get@?$num_get@DV?$istreambuf_iterator@DU?$char_traits@D@std@@@std@@@std@@QEBA?AV?$istreambuf_iterator@DU?$char_traits@D@std@@@2@V32@0AEAVios_base@2@AEAHAEA_N@Z 000000018000ae80 f i test.obj
 0001:00009f30       ?get@?$num_get@DV?$istreambuf_iterator@DU?$char_traits@D@std@@@std@@@std@@QEBA?AV?$istreambuf_iterator@DU?$char_traits@D@std@@@2@V32@0AEAVios_base@2@AEAHAEAJ@Z 000000018000af30 f i test.obj
 0001:00009fe0       ??0?$istreambuf_iterator@DU?$char_traits@D@std@@@std@@QEAA@PEAV?$basic_streambuf@DU?$char_traits@D@std@@@1@@Z 000000018000afe0 f i test.obj
 0001:0000a030       ??0?$fpos@H@std@@QEAA@_J@Z 000000018000b030 f i test.obj
 0001:0000a070       ??0?$fpos@H@std@@QEAA@H_J@Z 000000018000b070 f i test.obj
 0001:0000a0b0       ??B?$fpos@H@std@@QEBA_JXZ  000000018000b0b0 f i test.obj
 0001:0000a0d0       ?in@?$codecvt@DDH@std@@QEBAHAEAHPEBD1AEAPEBDPEAD3AEAPEAD@Z 000000018000b0d0 f i test.obj
 0001:0000a140       ?out@?$codecvt@DDH@std@@QEBAHAEAHPEBD1AEAPEBDPEAD3AEAPEAD@Z 000000018000b140 f i test.obj
 0001:0000a1b0       ?assign@?$basic_string@DU?$char_traits@D@std@@V?$allocator@D@2@@std@@QEAAAEAV12@AEBV12@_K1@Z 000000018000b1b0 f i test.obj
 0001:0000a2c0       ?assign@?$basic_string@DU?$char_traits@D@std@@V?$allocator@D@2@@std@@QEAAAEAV12@PEBD_K@Z 000000018000b2c0 f i test.obj
 0001:0000a390       ?assign@?$basic_string@DU?$char_traits@D@std@@V?$allocator@D@2@@std@@QEAAAEAV12@_KD@Z 000000018000b390 f i test.obj
 0001:0000a410       ?_Chassign@?$basic_string@DU?$char_traits@D@std@@V?$allocator@D@2@@std@@QEAAX_K0D@Z 000000018000b410 f i test.obj
 0001:0000a480       ?assign@?$char_traits@D@std@@SAPEADPEAD_KD@Z 000000018000b480 f i test.obj
 0001:0000a4b0       ?assign@?$char_traits@D@std@@SAXAEADAEBD@Z 000000018000b4b0 f i test.obj
 0001:0000a4d0       ?_Eos@?$basic_string@DU?$char_traits@D@std@@V?$allocator@D@2@@std@@QEAAX_K@Z 000000018000b4d0 f i test.obj
 0001:0000a520       ?_Grow@?$basic_string@DU?$char_traits@D@std@@V?$allocator@D@2@@std@@QEAA_N_K_N@Z 000000018000b520 f i test.obj
 0001:0000a600       ?_Xlen@?$basic_string@DU?$char_traits@D@std@@V?$allocator@D@2@@std@@QEBAXXZ 000000018000b600 f i test.obj
 0001:0000a620       ?_Xran@?$basic_string@DU?$char_traits@D@std@@V?$allocator@D@2@@std@@QEBAXXZ 000000018000b620 f i test.obj
 0001:0000a640       ??0?$basic_ostream@DU?$char_traits@D@std@@@std@@QEAA@W4_Uninitialized@1@_N@Z 000000018000b640 f i test.obj
 0001:0000a710       ?_Osfx@?$basic_ostream@DU?$char_traits@D@std@@@std@@QEAAXXZ 000000018000b710 f i test.obj
 0001:0000a760       ?tie@?$basic_ios@DU?$char_traits@D@std@@@std@@QEBAPEAV?$basic_ostream@DU?$char_traits@D@std@@@2@XZ 000000018000b760 f i test.obj
 0001:0000a770       ?init@?$basic_ios@DU?$char_traits@D@std@@@std@@IEAAXPEAV?$basic_streambuf@DU?$char_traits@D@std@@@2@_N@Z 000000018000b770 f i test.obj
 0001:0000a800       ?_Init@ios_base@std@@IEAAXXZ 000000018000b800 f i test.obj
 0001:0000a8e0       ??0locale@std@@QEAA@XZ     000000018000b8e0 f i test.obj
 0001:0000a910       ?clear@ios_base@std@@QEAAXH@Z 000000018000b910 f i test.obj
 0001:0000a940       ??0?$basic_streambuf@DU?$char_traits@D@std@@@std@@IEAA@XZ 000000018000b940 f i test.obj
 0001:0000a9e0       ?getloc@?$basic_streambuf@DU?$char_traits@D@std@@@std@@QEBA?AVlocale@2@XZ 000000018000b9e0 f i test.obj
 0001:0000aa20       ?_Init@?$basic_streambuf@DU?$char_traits@D@std@@@std@@IEAAXXZ 000000018000ba20 f i test.obj
 0001:0000aac0       ?_Init@?$basic_streambuf@DU?$char_traits@D@std@@@std@@IEAAXPEAPEAD0PEAH001@Z 000000018000bac0 f i test.obj
 0001:0000ab30       ?_Init@?$basic_stringbuf@DU?$char_traits@D@std@@V?$allocator@D@2@@std@@IEAAXPEBD_KH@Z 000000018000bb30 f i test.obj
 0001:0000acb0       ?_Getstate@?$basic_stringbuf@DU?$char_traits@D@std@@V?$allocator@D@2@@std@@AEAAHH@Z 000000018000bcb0 f i test.obj
 0001:0000ad20       ??0?$_String_iterator@DU?$char_traits@D@std@@V?$allocator@D@2@@std@@QEAA@PEADPEBU_Container_base12@1@@Z 000000018000bd20 f i test.obj
 0001:0000ad60       ??D?$_String_const_iterator@DU?$char_traits@D@std@@V?$allocator@D@2@@std@@QEBAAEBDXZ 000000018000bd60 f i test.obj
 0001:0000ae80       ?_Getcont@_Iterator_base12@std@@QEBAPEBU_Container_base12@2@XZ 000000018000be80 f i test.obj
 0001:0000aec0       ?unshift@?$codecvt@DDH@std@@QEBAHAEAHPEAD1AEAPEAD@Z 000000018000bec0 f i test.obj
 0001:0000af10       ?deallocate@?$allocator@U_Container_proxy@std@@@std@@QEAAXPEAU_Container_proxy@2@_K@Z 000000018000bf10 f i test.obj
 0001:0000af10       ?deallocate@?$allocator@D@std@@QEAAXPEAD_K@Z 000000018000bf10 f i test.obj
 0001:0000af40       ?allocate@?$allocator@U_Container_proxy@std@@@std@@QEAAPEAU_Container_proxy@2@_K@Z 000000018000bf40 f i test.obj
 0001:0000af60       ?max_size@?$basic_string@DU?$char_traits@D@std@@V?$allocator@D@2@@std@@QEBA_KXZ 000000018000bf60 f i test.obj
 0001:0000afb0       ?_Copy@?$basic_string@DU?$char_traits@D@std@@V?$allocator@D@2@@std@@QEAAX_K0@Z 000000018000bfb0 f i test.obj
 0001:0000b130       ?_Inside@?$basic_string@DU?$char_traits@D@std@@V?$allocator@D@2@@std@@QEAA_NPEBD@Z 000000018000c130 f i test.obj
 0001:0000b180       ?widen@?$basic_ios@DU?$char_traits@D@std@@@std@@QEBADD@Z 000000018000c180 f i test.obj
 0001:0000b1f0       ?widen@?$ctype@D@std@@QEBADD@Z 000000018000c1f0 f i test.obj
 0001:0000b220       ??0?$_String_const_iterator@DU?$char_traits@D@std@@V?$allocator@D@2@@std@@QEAA@PEBDPEBU_Container_base12@1@@Z 000000018000c220 f i test.obj
 0001:0000b270       ?_Adopt@_Iterator_base12@std@@QEAAXPEBU_Container_base12@2@@Z 000000018000c270 f i test.obj
 0001:0000b310       ??0?$_Iterator012@Urandom_access_iterator_tag@std@@D_JPEBDAEBDU_Iterator_base12@2@@std@@QEAA@XZ 000000018000c310 f i test.obj
 0001:0000b330       ??0_Container_proxy@std@@QEAA@XZ 000000018000c330 f i test.obj
 0001:0000b330       ??0_Iterator_base12@std@@QEAA@XZ 000000018000c330 f i test.obj
 0001:0000b360       ?max_size@?$allocator@D@std@@QEBA_KXZ 000000018000c360 f i test.obj
 0001:0000b3a0       ??$_DebugHeapDelete@Vfacet@locale@std@@@std@@YAXPEAVfacet@locale@0@@Z 000000018000c3a0 f i test.obj
 0001:0000b3e0       ??$use_facet@V?$ctype@D@std@@@std@@YAAEBV?$ctype@D@0@AEBVlocale@0@@Z 000000018000c3e0 f i test.obj
 0001:0000b4f0       ??Bid@locale@std@@QEAA_KXZ 000000018000c4f0 f i test.obj
 0001:0000b550       ?_Register@facet@locale@std@@QEAAXXZ 000000018000c550 f i test.obj
 0001:0000b570       ?_Getfacet@locale@std@@QEBAPEBVfacet@12@_K@Z 000000018000c570 f i test.obj
 0001:0000b630       ?_Getcat@?$ctype@D@std@@SA_KPEAPEBVfacet@locale@2@PEBV42@@Z 000000018000c630 f i test.obj
 0001:0000b770       ??0_Locinfo@std@@QEAA@PEBD@Z 000000018000c770 f i test.obj
 0001:0000b820       ??1_Locinfo@std@@QEAA@XZ   000000018000c820 f i test.obj
 0001:0000b8a0       ?c_str@locale@std@@QEBAPEBDXZ 000000018000c8a0 f i test.obj
 0001:0000b8d0       ??0?$ctype@D@std@@QEAA@AEBV_Locinfo@1@_K@Z 000000018000c8d0 f i test.obj
 0001:0000b930       ??0ctype_base@std@@QEAA@_K@Z 000000018000c930 f i test.obj
 0001:0000b970       ??0facet@locale@std@@IEAA@_K@Z 000000018000c970 f i test.obj
 0001:0000b9a0       ??_Gfacet@locale@std@@UEAAPEAXI@Z 000000018000c9a0 f i test.obj
 0001:0000b9a0       ??_Efacet@locale@std@@UEAAPEAXI@Z 000000018000c9a0 f i test.obj
 0001:0000b9e0       ??1facet@locale@std@@UEAA@XZ 000000018000c9e0 f i test.obj
 0001:0000ba00       ??1ctype_base@std@@UEAA@XZ 000000018000ca00 f i test.obj
 0001:0000ba30       ??_Gctype_base@std@@UEAAPEAXI@Z 000000018000ca30 f i test.obj
 0001:0000ba30       ??_Ectype_base@std@@UEAAPEAXI@Z 000000018000ca30 f i test.obj
 0001:0000ba70       ?_Init@?$ctype@D@std@@IEAAXAEBV_Locinfo@2@@Z 000000018000ca70 f i test.obj
 0001:0000bac0       ?_Getctype@_Locinfo@std@@QEBA?AU_Ctypevec@@XZ 000000018000cac0 f i test.obj
 0001:0000bb30       ?do_tolower@?$ctype@D@std@@MEBADD@Z 000000018000cb30 f i test.obj
 0001:0000bb60       ?do_tolower@?$ctype@D@std@@MEBAPEBDPEADPEBD@Z 000000018000cb60 f i test.obj
 0001:0000bbe0       ?do_toupper@?$ctype@D@std@@MEBADD@Z 000000018000cbe0 f i test.obj
 0001:0000bc10       ?do_toupper@?$ctype@D@std@@MEBAPEBDPEADPEBD@Z 000000018000cc10 f i test.obj
 0001:0000bc90       ?do_widen@?$ctype@D@std@@MEBADD@Z 000000018000cc90 f i test.obj
 0001:0000bca0       ?do_widen@?$ctype@D@std@@MEBAPEBDPEBD0PEAD@Z 000000018000cca0 f i test.obj
 0001:0000bd20       ?do_narrow@?$ctype@D@std@@MEBADDD@Z 000000018000cd20 f i test.obj
 0001:0000bd40       ?do_narrow@?$ctype@D@std@@MEBAPEBDPEBD0DPEAD@Z 000000018000cd40 f i test.obj
 0001:0000bdc0       ??_E?$ctype@D@std@@MEAAPEAXI@Z 000000018000cdc0 f i test.obj
 0001:0000bdc0       ??_G?$ctype@D@std@@MEAAPEAXI@Z 000000018000cdc0 f i test.obj
 0001:0000be00       ??1?$ctype@D@std@@MEAA@XZ  000000018000ce00 f i test.obj
 0001:0000be40       ?_Tidy@?$ctype@D@std@@IEAAXXZ 000000018000ce40 f i test.obj
 0001:0000be90       ??0?$_Yarn@D@std@@QEAA@XZ  000000018000ce90 f i test.obj
 0001:0000beb0       ??1?$_Yarn@D@std@@QEAA@XZ  000000018000ceb0 f i test.obj
 0001:0000bed0       ?_Tidy@?$_Yarn@D@std@@AEAAXXZ 000000018000ced0 f i test.obj
 0001:0000bf10       ??$_Debug_range@PEBD@std@@YAXPEBD0PEB_WI@Z 000000018000cf10 f i test.obj
 0001:0000bf60       ??$?6U?$char_traits@D@std@@@std@@YAAEAV?$basic_ostream@DU?$char_traits@D@std@@@0@AEAV10@PEBD@Z 000000018000cf60 f i test.obj
 0001:0000c350       ?width@ios_base@std@@QEBA_JXZ 000000018000d350 f i test.obj
 0001:0000c360       ?width@ios_base@std@@QEAA_J_J@Z 000000018000d360 f i test.obj
 0001:0000c3a0       ??$?HDU?$char_traits@D@std@@V?$allocator@D@1@@std@@YA?AV?$basic_string@DU?$char_traits@D@std@@V?$allocator@D@2@@0@$$QEAV10@PEBD@Z 000000018000d3a0 f i test.obj
 0001:0000c400       ?append@?$basic_string@DU?$char_traits@D@std@@V?$allocator@D@2@@std@@QEAAAEAV12@PEBD@Z 000000018000d400 f i test.obj
 0001:0000c450       ?append@?$basic_string@DU?$char_traits@D@std@@V?$allocator@D@2@@std@@QEAAAEAV12@PEBD_K@Z 000000018000d450 f i test.obj
 0001:0000c570       ?append@?$basic_string@DU?$char_traits@D@std@@V?$allocator@D@2@@std@@QEAAAEAV12@AEBV12@_K1@Z 000000018000d570 f i test.obj
 0001:0000c680       ??$?HDU?$char_traits@D@std@@V?$allocator@D@1@@std@@YA?AV?$basic_string@DU?$char_traits@D@std@@V?$allocator@D@2@@0@$$QEAV10@0@Z 000000018000d680 f i test.obj
 0001:0000c790       ?append@?$basic_string@DU?$char_traits@D@std@@V?$allocator@D@2@@std@@QEAAAEAV12@AEBV12@@Z 000000018000d790 f i test.obj
 0001:0000c7c0       ??$getline@DU?$char_traits@D@std@@V?$allocator@D@2@@std@@YAAEAV?$basic_istream@DU?$char_traits@D@std@@@0@AEAV10@AEAV?$basic_string@DU?$char_traits@D@std@@V?$allocator@D@2@@0@@Z 000000018000d7c0 f i test.obj
 0001:0000c820       ??$?8DU?$char_traits@D@std@@V?$allocator@D@1@@std@@YA_NAEBV?$basic_string@DU?$char_traits@D@std@@V?$allocator@D@2@@0@PEBD@Z 000000018000d820 f i test.obj
 0001:0000c860       ?compare@?$basic_string@DU?$char_traits@D@std@@V?$allocator@D@2@@std@@QEBAHPEBD@Z 000000018000d860 f i test.obj
 0001:0000c8c0       ?compare@?$basic_string@DU?$char_traits@D@std@@V?$allocator@D@2@@std@@QEBAH_K0PEBD0@Z 000000018000d8c0 f i test.obj
 0001:0000c9f0       ?compare@?$char_traits@D@std@@SAHPEBD0_K@Z 000000018000d9f0 f i test.obj
 0001:0000ca20       ??$_Debug_pointer@D@std@@YAXPEBDPEB_WI@Z 000000018000da20 f i test.obj
 0001:0000ca20       ??$_Debug_pointer@$$A6AAEAV?$basic_ostream@DU?$char_traits@D@std@@@std@@AEAV12@@Z@std@@YAXP6AAEAV?$basic_ostream@DU?$char_traits@D@std@@@0@AEAV10@@ZPEB_WI@Z 000000018000da20 f i test.obj
 0001:0000ca20       ??$_Debug_pointer@D@std@@YAXPEADPEB_WI@Z 000000018000da20 f i test.obj
 0001:0000ca60       ??$use_facet@V?$num_put@DV?$ostreambuf_iterator@DU?$char_traits@D@std@@@std@@@std@@@std@@YAAEBV?$num_put@DV?$ostreambuf_iterator@DU?$char_traits@D@std@@@std@@@0@AEBVlocale@0@@Z 000000018000da60 f i test.obj
 0001:0000cb70       ??$use_facet@V?$num_get@DV?$istreambuf_iterator@DU?$char_traits@D@std@@@std@@@std@@@std@@YAAEBV?$num_get@DV?$istreambuf_iterator@DU?$char_traits@D@std@@@std@@@0@AEBVlocale@0@@Z 000000018000db70 f i test.obj
 0001:0000cc80       ??$_DebugHeapDelete@Vlocale@std@@@std@@YAXPEAVlocale@0@@Z 000000018000dc80 f i test.obj
 0001:0000ccb0       ??$use_facet@V?$codecvt@DDH@std@@@std@@YAAEBV?$codecvt@DDH@0@AEBVlocale@0@@Z 000000018000dcb0 f i test.obj
 0001:0000cdc0       ??$?9DD@std@@YA_NAEBV?$allocator@D@0@0@Z 000000018000ddc0 f i test.obj
 0001:0000ce00       ??0?$allocator@D@std@@QEAA@AEBV01@@Z 000000018000de00 f i test.obj
 0001:0000ce00       ??$?0D@?$allocator@U_Container_proxy@std@@@std@@QEAA@AEBV?$allocator@D@1@@Z 000000018000de00 f i test.obj
 0001:0000ce10       ??$_Cons_val@V?$allocator@U_Container_proxy@std@@@std@@U_Container_proxy@2@U32@@std@@YAXAEAV?$allocator@U_Container_proxy@std@@@0@PEAU_Container_proxy@0@$$QEAU20@@Z 000000018000de10 f i test.obj
 0001:0000ce50       ??$_Dest_val@V?$allocator@U_Container_proxy@std@@@std@@U_Container_proxy@2@@std@@YAXAEAV?$allocator@U_Container_proxy@std@@@0@PEAU_Container_proxy@0@@Z 000000018000de50 f i test.obj
 0001:0000ce80       ??$_Allocate@D@std@@YAPEAD_KPEAD@Z 000000018000de80 f i test.obj
 0001:0000cef0       ??0bad_alloc@std@@QEAA@PEBD@Z 000000018000def0 f i test.obj
 0001:0000cf30       ??1bad_alloc@std@@UEAA@XZ  000000018000df30 f i test.obj
 0001:0000cf60       ??_Gbad_alloc@std@@UEAAPEAXI@Z 000000018000df60 f i test.obj
 0001:0000cf60       ??_Ebad_alloc@std@@UEAAPEAXI@Z 000000018000df60 f i test.obj
 0001:0000cfa0       ??$_Allocate@U_Container_proxy@std@@@std@@YAPEAU_Container_proxy@0@_KPEAU10@@Z 000000018000dfa0 f i test.obj
 0001:0000d020       ??_Glocale@std@@QEAAPEAXI@Z 000000018000e020 f i test.obj
 0001:0000d060       ??0bad_alloc@std@@QEAA@AEBV01@@Z 000000018000e060 f i test.obj
 0001:0000d0a0       ?insert@?$basic_string@DU?$char_traits@D@std@@V?$allocator@D@2@@std@@QEAAAEAV12@_KAEBV12@@Z 000000018000e0a0 f i test.obj
 0001:0000d0e0       ?sputn@?$basic_streambuf@DU?$char_traits@D@std@@@std@@QEAA_JPEBD_J@Z 000000018000e0e0 f i test.obj
 0001:0000d120       ?_Getcat@?$num_put@DV?$ostreambuf_iterator@DU?$char_traits@D@std@@@std@@@std@@SA_KPEAPEBVfacet@locale@2@PEBV42@@Z 000000018000e120 f i test.obj
 0001:0000d260       ?_Getcat@?$num_get@DV?$istreambuf_iterator@DU?$char_traits@D@std@@@std@@@std@@SA_KPEAPEBVfacet@locale@2@PEBV42@@Z 000000018000e260 f i test.obj
 0001:0000d3a0       ?_Getcat@?$codecvt@DDH@std@@SA_KPEAPEBVfacet@locale@2@PEBV42@@Z 000000018000e3a0 f i test.obj
 0001:0000d4e0       ?construct@?$allocator@U_Container_proxy@std@@@std@@QEAAXPEAU_Container_proxy@2@$$QEAU32@@Z 000000018000e4e0 f i test.obj
 0001:0000d580       ??2@YAPEAX_KPEAX@Z         000000018000e580 f i test.obj
 0001:0000d590       ?destroy@?$allocator@U_Container_proxy@std@@@std@@QEAAXPEAU_Container_proxy@2@@Z 000000018000e590 f i test.obj
 0001:0000d5b0       ?insert@?$basic_string@DU?$char_traits@D@std@@V?$allocator@D@2@@std@@QEAAAEAV12@_KAEBV12@00@Z 000000018000e5b0 f i test.obj
 0001:0000d7c0       ??0?$num_put@DV?$ostreambuf_iterator@DU?$char_traits@D@std@@@std@@@std@@QEAA@AEBV_Locinfo@1@_K@Z 000000018000e7c0 f i test.obj
 0001:0000d820       ?do_put@?$num_put@DV?$ostreambuf_iterator@DU?$char_traits@D@std@@@std@@@std@@MEBA?AV?$ostreambuf_iterator@DU?$char_traits@D@std@@@2@V32@AEAVios_base@2@D_N@Z 000000018000e820 f i test.obj
 0001:0000dc70       ?do_put@?$num_put@DV?$ostreambuf_iterator@DU?$char_traits@D@std@@@std@@@std@@MEBA?AV?$ostreambuf_iterator@DU?$char_traits@D@std@@@2@V32@AEAVios_base@2@DJ@Z 000000018000ec70 f i test.obj
 0001:0000dd70       ?do_put@?$num_put@DV?$ostreambuf_iterator@DU?$char_traits@D@std@@@std@@@std@@MEBA?AV?$ostreambuf_iterator@DU?$char_traits@D@std@@@2@V32@AEAVios_base@2@DK@Z 000000018000ed70 f i test.obj
 0001:0000de70       ?do_put@?$num_put@DV?$ostreambuf_iterator@DU?$char_traits@D@std@@@std@@@std@@MEBA?AV?$ostreambuf_iterator@DU?$char_traits@D@std@@@2@V32@AEAVios_base@2@D_J@Z 000000018000ee70 f i test.obj
 0001:0000df70       ?do_put@?$num_put@DV?$ostreambuf_iterator@DU?$char_traits@D@std@@@std@@@std@@MEBA?AV?$ostreambuf_iterator@DU?$char_traits@D@std@@@2@V32@AEAVios_base@2@D_K@Z 000000018000ef70 f i test.obj
 0001:0000e070       ?do_put@?$num_put@DV?$ostreambuf_iterator@DU?$char_traits@D@std@@@std@@@std@@MEBA?AV?$ostreambuf_iterator@DU?$char_traits@D@std@@@2@V32@AEAVios_base@2@DN@Z 000000018000f070 f i test.obj
 0001:0000e3c0       ?capacity@?$basic_string@DU?$char_traits@D@std@@V?$allocator@D@2@@std@@QEBA_KXZ 000000018000f3c0 f i test.obj
 0001:0000e3c0       ?precision@ios_base@std@@QEBA_JXZ 000000018000f3c0 f i test.obj
 0001:0000e3d0       ?do_put@?$num_put@DV?$ostreambuf_iterator@DU?$char_traits@D@std@@@std@@@std@@MEBA?AV?$ostreambuf_iterator@DU?$char_traits@D@std@@@2@V32@AEAVios_base@2@DO@Z 000000018000f3d0 f i test.obj
 0001:0000e700       ?do_put@?$num_put@DV?$ostreambuf_iterator@DU?$char_traits@D@std@@@std@@@std@@MEBA?AV?$ostreambuf_iterator@DU?$char_traits@D@std@@@2@V32@AEAVios_base@2@DPEBX@Z 000000018000f700 f i test.obj
 0001:0000e7d0       ??_G?$num_put@DV?$ostreambuf_iterator@DU?$char_traits@D@std@@@std@@@std@@MEAAPEAXI@Z 000000018000f7d0 f i test.obj
 0001:0000e7d0       ??_E?$num_put@DV?$ostreambuf_iterator@DU?$char_traits@D@std@@@std@@@std@@MEAAPEAXI@Z 000000018000f7d0 f i test.obj
 0001:0000e810       ??1?$num_put@DV?$ostreambuf_iterator@DU?$char_traits@D@std@@@std@@@std@@MEAA@XZ 000000018000f810 f i test.obj
 0001:0000e840       ?_Ffmt@?$num_put@DV?$ostreambuf_iterator@DU?$char_traits@D@std@@@std@@@std@@AEBAPEADPEADDH@Z 000000018000f840 f i test.obj
 0001:0000e970       ?_Fput@?$num_put@DV?$ostreambuf_iterator@DU?$char_traits@D@std@@@std@@@std@@AEBA?AV?$ostreambuf_iterator@DU?$char_traits@D@std@@@2@V32@AEAVios_base@2@DPEBD_K333@Z 000000018000f970 f i test.obj
 0001:0000f660       ?insert@?$basic_string@DU?$char_traits@D@std@@V?$allocator@D@2@@std@@QEAAAEAV12@_K0D@Z 0000000180010660 f i test.obj
 0001:0000f780       ?_Ifmt@?$num_put@DV?$ostreambuf_iterator@DU?$char_traits@D@std@@@std@@@std@@AEBAPEADPEADPEBDH@Z 0000000180010780 f i test.obj
 0001:0000f8e0       ?_Iput@?$num_put@DV?$ostreambuf_iterator@DU?$char_traits@D@std@@@std@@@std@@AEBA?AV?$ostreambuf_iterator@DU?$char_traits@D@std@@@2@V32@AEAVios_base@2@DPEAD_K@Z 00000001800108e0 f i test.obj
 0001:0000ff10       ?_Put@?$num_put@DV?$ostreambuf_iterator@DU?$char_traits@D@std@@@std@@@std@@AEBA?AV?$ostreambuf_iterator@DU?$char_traits@D@std@@@2@V32@PEBD_K@Z 0000000180010f10 f i test.obj
 0001:0000ffb0       ?_Rep@?$num_put@DV?$ostreambuf_iterator@DU?$char_traits@D@std@@@std@@@std@@AEBA?AV?$ostreambuf_iterator@DU?$char_traits@D@std@@@2@V32@D_K@Z 0000000180010fb0 f i test.obj
 0001:00010040       ?falsename@?$numpunct@D@std@@QEBA?AV?$basic_string@DU?$char_traits@D@std@@V?$allocator@D@2@@2@XZ 0000000180011040 f i test.obj
 0001:00010080       ?truename@?$numpunct@D@std@@QEBA?AV?$basic_string@DU?$char_traits@D@std@@V?$allocator@D@2@@2@XZ 0000000180011080 f i test.obj
 0001:000100c0       ??A?$basic_string@DU?$char_traits@D@std@@V?$allocator@D@2@@std@@QEAAAEAD_K@Z 00000001800110c0 f i test.obj
 0001:00010110       ?_Putc@?$num_put@DV?$ostreambuf_iterator@DU?$char_traits@D@std@@@std@@@std@@AEBA?AV?$ostreambuf_iterator@DU?$char_traits@D@std@@@2@V32@PEBD_K@Z 0000000180011110 f i test.obj
 0001:000101d0       ?_Putgrouped@?$num_put@DV?$ostreambuf_iterator@DU?$char_traits@D@std@@@std@@@std@@AEBA?AV?$ostreambuf_iterator@DU?$char_traits@D@std@@@2@V32@PEBD_KD@Z 00000001800111d0 f i test.obj
 0001:000103f0       ??4?$ostreambuf_iterator@DU?$char_traits@D@std@@@std@@QEAAAEAV01@D@Z 00000001800113f0 f i test.obj
 0001:00010460       ?thousands_sep@?$numpunct@D@std@@QEBADXZ 0000000180011460 f i test.obj
 0001:00010480       ?grouping@?$numpunct@D@std@@QEBA?AV?$basic_string@DU?$char_traits@D@std@@V?$allocator@D@2@@2@XZ 0000000180011480 f i test.obj
 0001:000104c0       ??$_Debug_pointer@V?$ostreambuf_iterator@DU?$char_traits@D@std@@@std@@@std@@YAXAEAV?$ostreambuf_iterator@DU?$char_traits@D@std@@@0@PEB_WI@Z 00000001800114c0 f i test.obj
 0001:000104d0       ??$use_facet@V?$numpunct@D@std@@@std@@YAAEBV?$numpunct@D@0@AEBVlocale@0@@Z 00000001800114d0 f i test.obj
 0001:000105e0       ??$_Maklocchr@D@std@@YADDPEADAEBU_Cvtvec@@@Z 00000001800115e0 f i test.obj
 0001:00010600       ?_Getcat@?$numpunct@D@std@@SA_KPEAPEBVfacet@locale@2@PEBV42@@Z 0000000180011600 f i test.obj
 0001:00010740       ??0?$num_get@DV?$istreambuf_iterator@DU?$char_traits@D@std@@@std@@@std@@QEAA@AEBV_Locinfo@1@_K@Z 0000000180011740 f i test.obj
 0001:000107a0       ?do_get@?$num_get@DV?$istreambuf_iterator@DU?$char_traits@D@std@@@std@@@std@@MEBA?AV?$istreambuf_iterator@DU?$char_traits@D@std@@@2@V32@0AEAVios_base@2@AEAHAEA_N@Z 00000001800117a0 f i test.obj
 0001:00010b70       ?do_get@?$num_get@DV?$istreambuf_iterator@DU?$char_traits@D@std@@@std@@@std@@MEBA?AV?$istreambuf_iterator@DU?$char_traits@D@std@@@2@V32@0AEAVios_base@2@AEAHAEAG@Z 0000000180011b70 f i test.obj
 0001:00010dd0       ?do_get@?$num_get@DV?$istreambuf_iterator@DU?$char_traits@D@std@@@std@@@std@@MEBA?AV?$istreambuf_iterator@DU?$char_traits@D@std@@@2@V32@0AEAVios_base@2@AEAHAEAI@Z 0000000180011dd0 f i test.obj
 0001:00011030       ?do_get@?$num_get@DV?$istreambuf_iterator@DU?$char_traits@D@std@@@std@@@std@@MEBA?AV?$istreambuf_iterator@DU?$char_traits@D@std@@@2@V32@0AEAVios_base@2@AEAHAEAJ@Z 0000000180012030 f i test.obj
 0001:00011220       ?do_get@?$num_get@DV?$istreambuf_iterator@DU?$char_traits@D@std@@@std@@@std@@MEBA?AV?$istreambuf_iterator@DU?$char_traits@D@std@@@2@V32@0AEAVios_base@2@AEAHAEAK@Z 0000000180012220 f i test.obj
 0001:00011410       ?do_get@?$num_get@DV?$istreambuf_iterator@DU?$char_traits@D@std@@@std@@@std@@MEBA?AV?$istreambuf_iterator@DU?$char_traits@D@std@@@2@V32@0AEAVios_base@2@AEAHAEA_J@Z 0000000180012410 f i test.obj
 0001:00011600       ?do_get@?$num_get@DV?$istreambuf_iterator@DU?$char_traits@D@std@@@std@@@std@@MEBA?AV?$istreambuf_iterator@DU?$char_traits@D@std@@@2@V32@0AEAVios_base@2@AEAHAEA_K@Z 0000000180012600 f i test.obj
 0001:000117f0       ?do_get@?$num_get@DV?$istreambuf_iterator@DU?$char_traits@D@std@@@std@@@std@@MEBA?AV?$istreambuf_iterator@DU?$char_traits@D@std@@@2@V32@0AEAVios_base@2@AEAHAEAM@Z 00000001800127f0 f i test.obj
 0001:000119e0       ldexpf                     00000001800129e0 f i test.obj
 0001:00011a10       ?do_get@?$num_get@DV?$istreambuf_iterator@DU?$char_traits@D@std@@@std@@@std@@MEBA?AV?$istreambuf_iterator@DU?$char_traits@D@std@@@2@V32@0AEAVios_base@2@AEAHAEAN@Z 0000000180012a10 f i test.obj
 0001:00011c00       ?do_get@?$num_get@DV?$istreambuf_iterator@DU?$char_traits@D@std@@@std@@@std@@MEBA?AV?$istreambuf_iterator@DU?$char_traits@D@std@@@2@V32@0AEAVios_base@2@AEAHAEAO@Z 0000000180012c00 f i test.obj
 0001:00011df0       ldexpl                     0000000180012df0 f i test.obj
 0001:00011e20       ?do_get@?$num_get@DV?$istreambuf_iterator@DU?$char_traits@D@std@@@std@@@std@@MEBA?AV?$istreambuf_iterator@DU?$char_traits@D@std@@@2@V32@0AEAVios_base@2@AEAHAEAPEAX@Z 0000000180012e20 f i test.obj
 0001:00012050       ??_G?$num_get@DV?$istreambuf_iterator@DU?$char_traits@D@std@@@std@@@std@@MEAAPEAXI@Z 0000000180013050 f i test.obj
 0001:00012050       ??_E?$num_get@DV?$istreambuf_iterator@DU?$char_traits@D@std@@@std@@@std@@MEAAPEAXI@Z 0000000180013050 f i test.obj
 0001:00012090       ??1?$num_get@DV?$istreambuf_iterator@DU?$char_traits@D@std@@@std@@@std@@MEAA@XZ 0000000180013090 f i test.obj
 0001:000120c0       ??Y?$basic_string@DU?$char_traits@D@std@@V?$allocator@D@2@@std@@QEAAAEAV01@AEBV01@@Z 00000001800130c0 f i test.obj
 0001:000120f0       ??Y?$basic_string@DU?$char_traits@D@std@@V?$allocator@D@2@@std@@QEAAAEAV01@D@Z 00000001800130f0 f i test.obj
 0001:00012120       ?_Getifld@?$num_get@DV?$istreambuf_iterator@DU?$char_traits@D@std@@@std@@@std@@AEBAHPEADAEAV?$istreambuf_iterator@DU?$char_traits@D@std@@@2@1HAEBVlocale@2@@Z 0000000180013120 f i test.obj
 0001:00012870       ?_Getffld@?$num_get@DV?$istreambuf_iterator@DU?$char_traits@D@std@@@std@@@std@@AEBAHPEADAEAV?$istreambuf_iterator@DU?$char_traits@D@std@@@2@1AEAVios_base@2@PEAH@Z 0000000180013870 f i test.obj
 0001:00013440       ?_Getffldx@?$num_get@DV?$istreambuf_iterator@DU?$char_traits@D@std@@@std@@@std@@AEBAHPEADAEAV?$istreambuf_iterator@DU?$char_traits@D@std@@@2@1AEAVios_base@2@PEAH@Z 0000000180014440 f i test.obj
 0001:000140e0       ??D?$istreambuf_iterator@DU?$char_traits@D@std@@@std@@QEBADXZ 00000001800150e0 f i test.obj
 0001:00014140       ??E?$istreambuf_iterator@DU?$char_traits@D@std@@@std@@QEAAAEAV01@XZ 0000000180015140 f i test.obj
 0001:00014190       ?_Hexdig@?$num_get@DV?$istreambuf_iterator@DU?$char_traits@D@std@@@std@@@std@@AEBAHDDDD@Z 0000000180015190 f i test.obj
 0001:00014240       ?_Inc@?$istreambuf_iterator@DU?$char_traits@D@std@@@std@@AEAAXXZ 0000000180015240 f i test.obj
 0001:000142b0       ?_Peek@?$istreambuf_iterator@DU?$char_traits@D@std@@@std@@AEBADXZ 00000001800152b0 f i test.obj
 0001:00014330       ??$_Debug_range@V?$istreambuf_iterator@DU?$char_traits@D@std@@@std@@@std@@YAXV?$istreambuf_iterator@DU?$char_traits@D@std@@@0@0PEB_WI@Z 0000000180015330 f i test.obj
 0001:000143c0       ??$_Getloctxt@DV?$istreambuf_iterator@DU?$char_traits@D@std@@@std@@@std@@YAHAEAV?$istreambuf_iterator@DU?$char_traits@D@std@@@0@0_KPEBD@Z 00000001800153c0 f i test.obj
 0001:00014740       ??$?8DU?$char_traits@D@std@@@std@@YA_NAEBV?$istreambuf_iterator@DU?$char_traits@D@std@@@0@0@Z 0000000180015740 f i test.obj
 0001:00014770       ??$?9DU?$char_traits@D@std@@@std@@YA_NAEBV?$istreambuf_iterator@DU?$char_traits@D@std@@@0@0@Z 0000000180015770 f i test.obj
 0001:000147b0       ??$_Maklocbyte@D@std@@YADDAEBU_Cvtvec@@@Z 00000001800157b0 f i test.obj
 0001:000147c0       ?equal@?$istreambuf_iterator@DU?$char_traits@D@std@@@std@@QEBA_NAEBV12@@Z 00000001800157c0 f i test.obj
 0001:00014850       ??0?$codecvt@DDH@std@@QEAA@AEBV_Locinfo@1@_K@Z 0000000180015850 f i test.obj
 0001:000148b0       ??0codecvt_base@std@@QEAA@_K@Z 00000001800158b0 f i test.obj
 0001:000148f0       ??1codecvt_base@std@@UEAA@XZ 00000001800158f0 f i test.obj
 0001:00014920       ?do_always_noconv@codecvt_base@std@@MEBA_NXZ 0000000180015920 f i test.obj
 0001:00014930       ?do_max_length@codecvt_base@std@@MEBAHXZ 0000000180015930 f i test.obj
 0001:00014930       ?do_encoding@codecvt_base@std@@MEBAHXZ 0000000180015930 f i test.obj
 0001:00014940       ??_Gcodecvt_base@std@@UEAAPEAXI@Z 0000000180015940 f i test.obj
 0001:00014940       ??_Ecodecvt_base@std@@UEAAPEAXI@Z 0000000180015940 f i test.obj
 0001:00014980       ?do_in@?$codecvt@DDH@std@@MEBAHAEAHPEBD1AEAPEBDPEAD3AEAPEAD@Z 0000000180015980 f i test.obj
 0001:00014980       ?do_out@?$codecvt@DDH@std@@MEBAHAEAHPEBD1AEAPEBDPEAD3AEAPEAD@Z 0000000180015980 f i test.obj
 0001:000149c0       ?do_unshift@?$codecvt@DDH@std@@MEBAHAEAHPEAD1AEAPEAD@Z 00000001800159c0 f i test.obj
 0001:000149f0       ?do_length@?$codecvt@DDH@std@@MEBAHAEBHPEBD1_K@Z 00000001800159f0 f i test.obj
 0001:00014a50       ??_E?$codecvt@DDH@std@@MEAAPEAXI@Z 0000000180015a50 f i test.obj
 0001:00014a50       ??_G?$codecvt@DDH@std@@MEAAPEAXI@Z 0000000180015a50 f i test.obj
 0001:00014a90       ??1?$codecvt@DDH@std@@MEAA@XZ 0000000180015a90 f i test.obj
 0001:00014ac0       ??0?$numpunct@D@std@@QEAA@AEBV_Locinfo@1@_K_N@Z 0000000180015ac0 f i test.obj
 0001:00014b20       ?do_decimal_point@?$numpunct@D@std@@MEBADXZ 0000000180015b20 f i test.obj
 0001:00014b30       ?do_thousands_sep@?$numpunct@D@std@@MEBADXZ 0000000180015b30 f i test.obj
 0001:00014b40       ?do_grouping@?$numpunct@D@std@@MEBA?AV?$basic_string@DU?$char_traits@D@std@@V?$allocator@D@2@@2@XZ 0000000180015b40 f i test.obj
 0001:00014b80       ?do_falsename@?$numpunct@D@std@@MEBA?AV?$basic_string@DU?$char_traits@D@std@@V?$allocator@D@2@@2@XZ 0000000180015b80 f i test.obj
 0001:00014bc0       ?do_truename@?$numpunct@D@std@@MEBA?AV?$basic_string@DU?$char_traits@D@std@@V?$allocator@D@2@@2@XZ 0000000180015bc0 f i test.obj
 0001:00014c00       ??_G?$numpunct@D@std@@MEAAPEAXI@Z 0000000180015c00 f i test.obj
 0001:00014c00       ??_E?$numpunct@D@std@@MEAAPEAXI@Z 0000000180015c00 f i test.obj
 0001:00014c40       ??1?$numpunct@D@std@@MEAA@XZ 0000000180015c40 f i test.obj
 0001:00014c80       ?_Tidy@?$numpunct@D@std@@AEAAXXZ 0000000180015c80 f i test.obj
 0001:00014cc0       ??$_DebugHeapDelete@X@std@@YAXPEAX@Z 0000000180015cc0 f i test.obj
 0001:00014cc0       ??$_DebugHeapDelete@U_Iosarray@ios_base@std@@@std@@YAXPEAU_Iosarray@ios_base@0@@Z 0000000180015cc0 f i libcpmtd:ios.obj
 0001:00014cc0       ??$_DebugHeapDelete@U_RTL_CRITICAL_SECTION@@@std@@YAXPEAU_RTL_CRITICAL_SECTION@@@Z 0000000180015cc0 f i libcpmtd:xmutex.obj
 0001:00014cc0       ??$_DebugHeapDelete@U_Fnarray@ios_base@std@@@std@@YAXPEAU_Fnarray@ios_base@0@@Z 0000000180015cc0 f i libcpmtd:ios.obj
 0001:00014ce0       ?_Getcvt@_Locinfo@std@@QEBA?AU_Cvtvec@@XZ 0000000180015ce0 f i test.obj
 0001:00014d10       ?_Init@?$num_put@DV?$ostreambuf_iterator@DU?$char_traits@D@std@@@std@@@std@@IEAAXAEBV_Locinfo@2@@Z 0000000180015d10 f i test.obj
 0001:00014d10       ?_Init@?$num_get@DV?$istreambuf_iterator@DU?$char_traits@D@std@@@std@@@std@@IEAAXAEBV_Locinfo@2@@Z 0000000180015d10 f i test.obj
 0001:00014d40       ?_Init@?$numpunct@D@std@@IEAAXAEBV_Locinfo@2@_N@Z 0000000180015d40 f i test.obj
 0001:00014fa0       ?_Getlconv@_Locinfo@std@@QEBAPEBUlconv@@XZ 0000000180015fa0 f i test.obj
 0001:00014fc0       ?_Getfalse@_Locinfo@std@@QEBAPEBDXZ 0000000180015fc0 f i test.obj
 0001:00014fd0       ?_Gettrue@_Locinfo@std@@QEBAPEBDXZ 0000000180015fd0 f i test.obj
 0001:00014fe0       ??$_Iter_cat@PEBD@std@@YA?AUrandom_access_iterator_tag@0@AEBQEBD@Z 0000000180015fe0 f i test.obj
 0001:00015010       ??$_Debug_range2@PEBD@std@@YAXPEBD0PEB_WIUrandom_access_iterator_tag@0@@Z 0000000180016010 f i test.obj
 0001:00015090       ??$getline@DU?$char_traits@D@std@@V?$allocator@D@2@@std@@YAAEAV?$basic_istream@DU?$char_traits@D@std@@@0@$$QEAV10@AEAV?$basic_string@DU?$char_traits@D@std@@V?$allocator@D@2@@0@D@Z 0000000180016090 f i test.obj
 0001:00015330       ??$move@AEAV?$basic_string@DU?$char_traits@D@std@@V?$allocator@D@2@@std@@@std@@YA$$QEAV?$basic_string@DU?$char_traits@D@std@@V?$allocator@D@2@@0@AEAV10@@Z 0000000180016330 f i test.obj
 0001:00015330       ??D?$ostreambuf_iterator@DU?$char_traits@D@std@@@std@@QEAAAEAV01@XZ 0000000180016330 f i test.obj
 0001:00015330       ??$forward@U_Container_proxy@std@@@std@@YA$$QEAU_Container_proxy@0@AEAU10@@Z 0000000180016330 f i test.obj
 0001:00015330       ??$move@AEAV?$basic_istream@DU?$char_traits@D@std@@@std@@@std@@YA$$QEAV?$basic_istream@DU?$char_traits@D@std@@@0@AEAV10@@Z 0000000180016330 f i test.obj
 0001:00015330       ?GetLocaleT@_LocaleUpdate@@QEAAPEAUlocaleinfo_struct@@XZ 0000000180016330 f i LIBCMTD:dbgheap.obj
 0001:00015330       ??$forward@V?$basic_string@DU?$char_traits@D@std@@V?$allocator@D@2@@std@@@std@@YA$$QEAV?$basic_string@DU?$char_traits@D@std@@V?$allocator@D@2@@0@AEAV10@@Z 0000000180016330 f i test.obj
 0001:00015330       ??$forward@V?$allocator@D@std@@@std@@YA$$QEAV?$allocator@D@0@AEAV10@@Z 0000000180016330 f i test.obj
 0001:00015330       ??0?$allocator@D@std@@QEAA@XZ 0000000180016330 f i test.obj
 0001:00015330       ??E?$ostreambuf_iterator@DU?$char_traits@D@std@@@std@@QEAAAEAV01@XZ 0000000180016330 f i test.obj
 0001:00015340       ??$?8DD@std@@YA_NAEBV?$allocator@D@0@0@Z 0000000180016340 f i test.obj
 0001:00015350       ??$_Iter_cat@V?$istreambuf_iterator@DU?$char_traits@D@std@@@std@@@std@@YA?AUinput_iterator_tag@0@AEBV?$istreambuf_iterator@DU?$char_traits@D@std@@@0@@Z 0000000180016350 f i test.obj
 0001:00015370       ??$_Debug_range2@V?$istreambuf_iterator@DU?$char_traits@D@std@@@std@@@std@@YAXV?$istreambuf_iterator@DU?$char_traits@D@std@@@0@0PEB_WIUinput_iterator_tag@0@@Z 0000000180016370 f i test.obj
 0001:000153b0       ??$_Maklocstr@D@std@@YAPEADPEBDPEADAEBU_Cvtvec@@@Z 00000001800163b0 f i test.obj
 0001:00015470       ??0?$basic_ifstream@DU?$char_traits@D@std@@@std@@QEAA@XZ 0000000180016470 f i test.obj
 0001:00015520       ??0?$basic_ofstream@DU?$char_traits@D@std@@@std@@QEAA@XZ 0000000180016520 f i test.obj
 0001:000155d0       ??_G?$basic_ofstream@DU?$char_traits@D@std@@@std@@UEAAPEAXI@Z 00000001800165d0 f i test.obj
 0001:000155d0       ??_E?$basic_ofstream@DU?$char_traits@D@std@@@std@@UEAAPEAXI@Z 00000001800165d0 f i test.obj
 0001:00015620       ??_D?$basic_ofstream@DU?$char_traits@D@std@@@std@@QEAAXXZ 0000000180016620 f i test.obj
 0001:00015660       ??1?$basic_ofstream@DU?$char_traits@D@std@@@std@@UEAA@XZ 0000000180016660 f i test.obj
 0001:000156d0       ??0?$basic_ostream@DU?$char_traits@D@std@@@std@@QEAA@PEAV?$basic_streambuf@DU?$char_traits@D@std@@@1@_N@Z 00000001800166d0 f i test.obj
 0001:00015780       ??0id@locale@std@@QEAA@_K@Z 0000000180016780 f i test.obj
 0001:00015780       ??0locale@std@@AEAA@PEAV_Locimp@01@@Z 0000000180016780 f i libcpmtd:locale0.obj
 0001:000157a0       ?init_Window@@YAXPEAD0HHHHH_N@Z 00000001800167a0 f   Window.obj
 0001:00015c40       ?destroy_Window@@YAXXZ     0000000180016c40 f   Window.obj
 0001:00015c80       ??0LTexture@@QEAA@XZ       0000000180016c80 f   LTexture.obj
 0001:00015cc0       ??1LTexture@@QEAA@XZ       0000000180016cc0 f   LTexture.obj
 0001:00015ce0       ?loadFromFile@LTexture@@QEAA_NV?$basic_string@DU?$char_traits@D@std@@V?$allocator@D@2@@std@@@Z 0000000180016ce0 f   LTexture.obj
 0001:00015e50       ?free@LTexture@@QEAAXXZ    0000000180016e50 f   LTexture.obj
 0001:00015ea0       ?setColor@LTexture@@QEAAXEEE@Z 0000000180016ea0 f   LTexture.obj
 0001:00015ee0       ?setBlendMode@LTexture@@QEAAXW4SDL_BlendMode@@@Z 0000000180016ee0 f   LTexture.obj
 0001:00015f10       ?setAlpha@LTexture@@QEAAXE@Z 0000000180016f10 f   LTexture.obj
 0001:00015f40       ?render@LTexture@@QEAAXHHHHPEAUSDL_Rect@@@Z 0000000180016f40 f   LTexture.obj
 0001:00016000       ?render@LTexture@@QEAAXHHHPEAUSDL_Rect@@NPEAUSDL_Point@@W4SDL_RendererFlip@@@Z 0000000180017000 f   LTexture.obj
 0001:00016100       ?getWidth@LTexture@@QEAAHXZ 0000000180017100 f   LTexture.obj
 0001:00016120       ?getHeight@LTexture@@QEAAHXZ 0000000180017120 f   LTexture.obj
 0001:0001612e       SDL_DestroyTexture         000000018001712e f   SDL2:SDL2.dll
 0001:00016134       SDL_FreeSurface            0000000180017134 f   SDL2:SDL2.dll
 0001:0001613a       SDL_RenderCopy             000000018001713a f   SDL2:SDL2.dll
 0001:00016140       SDL_QueryTexture           0000000180017140 f   SDL2:SDL2.dll
 0001:00016146       SDL_CreateTextureFromSurface 0000000180017146 f   SDL2:SDL2.dll
 0001:0001614c       SDL_RenderPresent          000000018001714c f   SDL2:SDL2.dll
 0001:00016152       SDL_Delay                  0000000180017152 f   SDL2:SDL2.dll
 0001:00016158       SDL_RenderClear            0000000180017158 f   SDL2:SDL2.dll
 0001:0001615e       SDL_SetRenderDrawColor     000000018001715e f   SDL2:SDL2.dll
 0001:00016164       SDL_SetWindowSize          0000000180017164 f   SDL2:SDL2.dll
 0001:0001616a       SDL_MinimizeWindow         000000018001716a f   SDL2:SDL2.dll
 0001:00016170       SDL_SetWindowFullscreen    0000000180017170 f   SDL2:SDL2.dll
 0001:00016176       SDL_SetWindowIcon          0000000180017176 f   SDL2:SDL2.dll
 0001:0001617c       SDL_CreateRGBSurfaceFrom   000000018001717c f   SDL2:SDL2.dll
 0001:00016182       SDL_GetMouseState          0000000180017182 f   SDL2:SDL2.dll
 0001:00016188       SDL_PollEvent              0000000180017188 f   SDL2:SDL2.dll
 0001:0001618e       SDL_RenderFillRect         000000018001718e f   SDL2:SDL2.dll
 0001:00016194       SDL_SetRenderDrawBlendMode 0000000180017194 f   SDL2:SDL2.dll
 0001:0001619a       SDL_GetKeyboardState       000000018001719a f   SDL2:SDL2.dll
 0001:000161a0       SDL_RenderSetLogicalSize   00000001800171a0 f   SDL2:SDL2.dll
 0001:000161a6       SDL_CreateRenderer         00000001800171a6 f   SDL2:SDL2.dll
 0001:000161ac       SDL_CreateWindow           00000001800171ac f   SDL2:SDL2.dll
 0001:000161b2       SDL_JoystickOpen           00000001800171b2 f   SDL2:SDL2.dll
 0001:000161b8       SDL_GameControllerGetJoystick 00000001800171b8 f   SDL2:SDL2.dll
 0001:000161be       SDL_GameControllerOpen     00000001800171be f   SDL2:SDL2.dll
 0001:000161c4       SDL_IsGameController       00000001800171c4 f   SDL2:SDL2.dll
 0001:000161ca       SDL_NumJoysticks           00000001800171ca f   SDL2:SDL2.dll
 0001:000161d0       SDL_GameControllerAddMappingsFromRW 00000001800171d0 f   SDL2:SDL2.dll
 0001:000161d6       SDL_RWFromFile             00000001800171d6 f   SDL2:SDL2.dll
 0001:000161dc       SDL_SetHint                00000001800171dc f   SDL2:SDL2.dll
 0001:000161e2       SDL_GetError               00000001800171e2 f   SDL2:SDL2.dll
 0001:000161e8       SDL_Init                   00000001800171e8 f   SDL2:SDL2.dll
 0001:000161ee       SDL_Quit                   00000001800171ee f   SDL2:SDL2.dll
 0001:000161f4       SDL_DestroyWindow          00000001800171f4 f   SDL2:SDL2.dll
 0001:000161fa       SDL_DestroyRenderer        00000001800171fa f   SDL2:SDL2.dll
 0001:00016200       SDL_SetColorKey            0000000180017200 f   SDL2:SDL2.dll
 0001:00016206       SDL_MapRGB                 0000000180017206 f   SDL2:SDL2.dll
 0001:0001620c       SDL_SetTextureColorMod     000000018001720c f   SDL2:SDL2.dll
 0001:00016212       SDL_SetTextureBlendMode    0000000180017212 f   SDL2:SDL2.dll
 0001:00016218       SDL_SetTextureAlphaMod     0000000180017218 f   SDL2:SDL2.dll
 0001:0001621e       SDL_RenderCopyEx           000000018001721e f   SDL2:SDL2.dll
 0001:00016224       IMG_Init                   0000000180017224 f   SDL2_image:SDL2_image.dll
 0001:0001622a       IMG_Load                   000000018001722a f   SDL2_image:SDL2_image.dll
 0001:00016230       TTF_CloseFont              0000000180017230 f   SDL2_ttf:SDL2_ttf.dll
 0001:00016236       TTF_RenderText_Blended     0000000180017236 f   SDL2_ttf:SDL2_ttf.dll
 0001:0001623c       TTF_SetFontStyle           000000018001723c f   SDL2_ttf:SDL2_ttf.dll
 0001:00016242       TTF_SizeText               0000000180017242 f   SDL2_ttf:SDL2_ttf.dll
 0001:00016248       TTF_OpenFont               0000000180017248 f   SDL2_ttf:SDL2_ttf.dll
 0001:0001624e       TTF_Init                   000000018001724e f   SDL2_ttf:SDL2_ttf.dll
 0001:00016254       Mix_OpenAudio              0000000180017254 f   SDL2_mixer:SDL2_mixer.dll
 0001:00016260       ??0_Init_locks@std@@QEAA@XZ 0000000180017260 f   libcpmtd:xlock.obj
 0001:000162d0       ??1_Init_locks@std@@QEAA@XZ 00000001800172d0 f   libcpmtd:xlock.obj
 0001:00016340       ??0_Lockit@std@@QEAA@H@Z   0000000180017340 f   libcpmtd:xlock.obj
 0001:00016390       ??1_Lockit@std@@QEAA@XZ    0000000180017390 f   libcpmtd:xlock.obj
 0001:000163d0       ?_Ios_base_dtor@ios_base@std@@CAXPEAV12@@Z 00000001800173d0 f   libcpmtd:ios.obj
 0001:00016440       ?_Tidy@ios_base@std@@AEAAXXZ 0000000180017440 f i libcpmtd:ios.obj
 0001:000164f0       ?_Callfns@ios_base@std@@AEAAXW4event@12@@Z 00000001800174f0 f i libcpmtd:ios.obj
 0001:00016550       ?_Addstd@ios_base@std@@SAXPEAV12@@Z 0000000180017550 f   libcpmtd:ios.obj
 0001:00016630       ??0_Mutex@std@@QEAA@XZ     0000000180017630 f   libcpmtd:xmutex.obj
 0001:00016690       ??1_Mutex@std@@QEAA@XZ     0000000180017690 f   libcpmtd:xmutex.obj
 0001:000166c0       ?_Lock@_Mutex@std@@QEAAXXZ 00000001800176c0 f   libcpmtd:xmutex.obj
 0001:000166e0       ?_Unlock@_Mutex@std@@QEAAXXZ 00000001800176e0 f   libcpmtd:xmutex.obj
 0001:00016700       ?_Debug_message@std@@YAXPEB_W0I@Z 0000000180017700 f   libcpmtd:stdthrow.obj
 0001:00016740       ?iostream_category@std@@YAAEBVerror_category@1@XZ 0000000180017740 f   libcpmtd:syserror.obj
 0001:00016750       ??0_Generic_error_category@std@@QEAA@XZ 0000000180017750 f i libcpmtd:syserror.obj
 0001:00016790       ??0error_category@std@@QEAA@XZ 0000000180017790 f i libcpmtd:syserror.obj
 0001:000167b0       ??_Gerror_category@std@@UEAAPEAXI@Z 00000001800177b0 f i libcpmtd:syserror.obj
 0001:000167b0       ??_Eerror_category@std@@UEAAPEAXI@Z 00000001800177b0 f i libcpmtd:syserror.obj
 0001:000167f0       ??1error_category@std@@UEAA@XZ 00000001800177f0 f i libcpmtd:syserror.obj
 0001:00016810       ??0error_condition@std@@QEAA@HAEBVerror_category@1@@Z 0000000180017810 f i libcpmtd:syserror.obj
 0001:00016810       ??0error_code@std@@QEAA@HAEBVerror_category@1@@Z 0000000180017810 f i test.obj
 0001:00016840       ?equivalent@error_category@std@@UEBA_NHAEBVerror_condition@2@@Z 0000000180017840 f i libcpmtd:syserror.obj
 0001:00016880       ??8error_condition@std@@QEBA_NAEBV01@@Z 0000000180017880 f i libcpmtd:syserror.obj
 0001:00016900       ??8error_category@std@@QEBA_NAEBV01@@Z 0000000180017900 f i libcpmtd:syserror.obj
 0001:00016940       ?equivalent@error_category@std@@UEBA_NAEBVerror_code@2@H@Z 0000000180017940 f i libcpmtd:syserror.obj
 0001:000169a0       ?value@error_code@std@@QEBAHXZ 00000001800179a0 f i libcpmtd:syserror.obj
 0001:000169a0       ?value@error_condition@std@@QEBAHXZ 00000001800179a0 f i libcpmtd:syserror.obj
 0001:000169b0       ?name@_Iostream_error_category@std@@UEBAPEBDXZ 00000001800179b0 f i libcpmtd:syserror.obj
 0001:000169b0       ?category@error_code@std@@QEBAAEBVerror_category@2@XZ 00000001800179b0 f i libcpmtd:syserror.obj
 0001:000169b0       ?category@error_condition@std@@QEBAAEBVerror_category@2@XZ 00000001800179b0 f i libcpmtd:syserror.obj
 0001:000169b0       ?seekpos@?$fpos@H@std@@QEBA_JXZ 00000001800179b0 f i test.obj
 0001:000169b0       ?name@_Generic_error_category@std@@UEBAPEBDXZ 00000001800179b0 f i libcpmtd:syserror.obj
 0001:000169c0       ?message@_Generic_error_category@std@@UEBA?AV?$basic_string@DU?$char_traits@D@std@@V?$allocator@D@2@@2@H@Z 00000001800179c0 f i libcpmtd:syserror.obj
 0001:00016a10       ??0_Iostream_error_category@std@@QEAA@XZ 0000000180017a10 f i libcpmtd:syserror.obj
 0001:00016a50       ?message@_Iostream_error_category@std@@UEBA?AV?$basic_string@DU?$char_traits@D@std@@V?$allocator@D@2@@2@H@Z 0000000180017a50 f i libcpmtd:syserror.obj
 0001:00016ad0       ??_G_Generic_error_category@std@@UEAAPEAXI@Z 0000000180017ad0 f i libcpmtd:syserror.obj
 0001:00016ad0       ??_G_Iostream_error_category@std@@UEAAPEAXI@Z 0000000180017ad0 f i libcpmtd:syserror.obj
 0001:00016ad0       ??_E_Generic_error_category@std@@UEAAPEAXI@Z 0000000180017ad0 f i libcpmtd:syserror.obj
 0001:00016ad0       ??_E_Iostream_error_category@std@@UEAAPEAXI@Z 0000000180017ad0 f i libcpmtd:syserror.obj
 0001:00016b10       ??1_Generic_error_category@std@@UEAA@XZ 0000000180017b10 f i libcpmtd:syserror.obj
 0001:00016b10       ??1_Iostream_error_category@std@@UEAA@XZ 0000000180017b10 f i libcpmtd:syserror.obj
 0001:00016b30       ??0_System_error_category@std@@QEAA@XZ 0000000180017b30 f i libcpmtd:syserror.obj
 0001:00016b70       ?name@_System_error_category@std@@UEBAPEBDXZ 0000000180017b70 f i libcpmtd:syserror.obj
 0001:00016b80       ?default_error_condition@_System_error_category@std@@UEBA?AVerror_condition@2@H@Z 0000000180017b80 f i libcpmtd:syserror.obj
 0001:00016b80       ?default_error_condition@error_category@std@@UEBA?AVerror_condition@2@H@Z 0000000180017b80 f i libcpmtd:syserror.obj
 0001:00016bb0       ??_E_System_error_category@std@@UEAAPEAXI@Z 0000000180017bb0 f i libcpmtd:syserror.obj
 0001:00016bb0       ??_G_System_error_category@std@@UEAAPEAXI@Z 0000000180017bb0 f i libcpmtd:syserror.obj
 0001:00016bf0       ??1_System_error_category@std@@UEAA@XZ 0000000180017bf0 f i libcpmtd:syserror.obj
 0001:00016c10       ?_Xfsopen@std@@YAPEAU_iobuf@@PEBDHH@Z 0000000180017c10 f   libcpmtd:fiopen.obj
 0001:00016c50       ?_Fiopen@std@@YAPEAU_iobuf@@PEBDHH@Z 0000000180017c50 f   libcpmtd:fiopen.obj
 0001:00016c80       ??$_Xfiopen@D@std@@YAPEAU_iobuf@@PEBDHH@Z 0000000180017c80 f i libcpmtd:fiopen.obj
 0001:00016e00       ?uncaught_exception@std@@YA_NXZ 0000000180017e00 f   libcpmtd:uncaught.obj
 0001:00016e10       ??0logic_error@std@@QEAA@PEBD@Z 0000000180017e10 f i libcpmtd:xthrow.obj
 0001:00016e50       ??_Gruntime_error@std@@UEAAPEAXI@Z 0000000180017e50 f i test.obj
 0001:00016e50       ??_Glogic_error@std@@UEAAPEAXI@Z 0000000180017e50 f i libcpmtd:xthrow.obj
 0001:00016e50       ??_Elogic_error@std@@UEAAPEAXI@Z 0000000180017e50 f i libcpmtd:xthrow.obj
 0001:00016e50       ??_Eruntime_error@std@@UEAAPEAXI@Z 0000000180017e50 f i test.obj
 0001:00016e90       ??0logic_error@std@@QEAA@AEBV01@@Z 0000000180017e90 f i libcpmtd:xthrow.obj
 0001:00016ed0       ?_Xlength_error@std@@YAXPEBD@Z 0000000180017ed0 f   libcpmtd:xthrow.obj
 0001:00016f00       ??0length_error@std@@QEAA@PEBD@Z 0000000180017f00 f i libcpmtd:xthrow.obj
 0001:00016f40       ??0length_error@std@@QEAA@AEBV01@@Z 0000000180017f40 f i libcpmtd:xthrow.obj
 0001:00016f80       ?_Xout_of_range@std@@YAXPEBD@Z 0000000180017f80 f   libcpmtd:xthrow.obj
 0001:00016fb0       ??0out_of_range@std@@QEAA@PEBD@Z 0000000180017fb0 f i libcpmtd:xthrow.obj
 0001:00016ff0       ??_Gsystem_error@std@@UEAAPEAXI@Z 0000000180017ff0 f i test.obj
 0001:00016ff0       ??_Elength_error@std@@UEAAPEAXI@Z 0000000180017ff0 f i libcpmtd:xthrow.obj
 0001:00016ff0       ??_Eout_of_range@std@@UEAAPEAXI@Z 0000000180017ff0 f i libcpmtd:xthrow.obj
 0001:00016ff0       ??_Esystem_error@std@@UEAAPEAXI@Z 0000000180017ff0 f i test.obj
 0001:00016ff0       ??_Gout_of_range@std@@UEAAPEAXI@Z 0000000180017ff0 f i libcpmtd:xthrow.obj
 0001:00016ff0       ??_Glength_error@std@@UEAAPEAXI@Z 0000000180017ff0 f i libcpmtd:xthrow.obj
 0001:00017030       ??0out_of_range@std@@QEAA@AEBV01@@Z 0000000180018030 f i libcpmtd:xthrow.obj
 0001:00017070       ??2@YAPEAX_KAEBU_DebugHeapTag_t@std@@PEADH@Z 0000000180018070 f   libcpmtd:xdebug.obj
 0001:00017110       ??0bad_alloc@std@@QEAA@XZ  0000000180018110 f i libcpmtd:xdebug.obj
 0001:00017160       ??_U@YAPEAX_KAEBU_DebugHeapTag_t@std@@PEADH@Z 0000000180018160 f   libcpmtd:xdebug.obj
 0001:000171a0       ??3@YAXPEAXAEBU_DebugHeapTag_t@std@@PEADH@Z 00000001800181a0 f   libcpmtd:xdebug.obj
 0001:000171d0       ?_DebugHeapTag_func@std@@YAAEBU_DebugHeapTag_t@1@XZ 00000001800181d0 f   libcpmtd:xdebug.obj
 0001:000171e0       ?_Facet_Register@facet@locale@std@@CAXPEAV123@@Z 00000001800181e0 f   libcpmtd:locale0.obj
 0001:00017270       ??0_Fac_node@std@@QEAA@PEAU01@PEAVfacet@locale@1@@Z 0000000180018270 f i libcpmtd:locale0.obj
 0001:000172a0       _Deletegloballocale        00000001800182a0 f   libcpmtd:locale0.obj
 0001:000172e0       ?_Getgloballocale@locale@std@@CAPEAV_Locimp@12@XZ 00000001800182e0 f   libcpmtd:locale0.obj
 0001:000172f0       ?_Setgloballocale@locale@std@@CAXPEAX@Z 00000001800182f0 f   libcpmtd:locale0.obj
 0001:00017370       ??0_Locimp@locale@std@@AEAA@_N@Z 0000000180018370 f i libcpmtd:locale0.obj
 0001:00017400       ??_E_Locimp@locale@std@@MEAAPEAXI@Z 0000000180018400 f i libcpmtd:locale0.obj
 0001:00017400       ??_G_Locimp@locale@std@@MEAAPEAXI@Z 0000000180018400 f i libcpmtd:locale0.obj
 0001:00017440       ??1_Locimp@locale@std@@MEAA@XZ 0000000180018440 f i libcpmtd:locale0.obj
 0001:00017490       ?_Init@locale@std@@CAPEAV_Locimp@12@XZ 0000000180018490 f   libcpmtd:locale0.obj
 0001:000175e0       ?_Locimp_dtor@_Locimp@locale@std@@CAXPEAV123@@Z 00000001800185e0 f   libcpmtd:locale0.obj
 0001:00017680       ?_Locinfo_ctor@_Locinfo@std@@SAXPEAV12@PEBD@Z 0000000180018680 f   libcpmtd:locale0.obj
 0001:00017730       ?_Locinfo_dtor@_Locinfo@std@@SAXPEAV12@@Z 0000000180018730 f   libcpmtd:locale0.obj
 0001:00017780       ??0?$_Yarn@D@std@@QEAA@PEBD@Z 0000000180018780 f i libcpmtd:locale0.obj
 0001:000177c0       ??4?$_Yarn@D@std@@QEAAAEAV01@PEBD@Z 00000001800187c0 f i libcpmtd:locale0.obj
 0001:00017890       ?_Empty@?$_Yarn@D@std@@QEBA_NXZ 0000000180018890 f i libcpmtd:locale0.obj
 0001:000178c0       ?_C_str@?$_Yarn@D@std@@QEBAPEBDXZ 00000001800188c0 f i libcpmtd:locale0.obj
 0001:000178c0       ?c_str@?$_Yarn@D@std@@QEBAPEBDXZ 00000001800188c0 f i test.obj
 0001:00017900       ??0locale@std@@QEAA@W4_Uninitialized@1@@Z 0000000180018900 f i libcpmtd:locale0.obj
 0001:00017910       ??1_Fac_tidy_reg_t@std@@QEAA@XZ 0000000180018910 f i libcpmtd:locale0.obj
 0001:00017990       ??$_DebugHeapDelete@U_Fac_node@std@@@std@@YAXPEAU_Fac_node@0@@Z 0000000180018990 f i libcpmtd:locale0.obj
 0001:000179c0       ??_G_Fac_node@std@@QEAAPEAXI@Z 00000001800189c0 f i libcpmtd:locale0.obj
 0001:00017a00       ??1_Fac_node@std@@QEAA@XZ  0000000180018a00 f i libcpmtd:locale0.obj
 0001:00017a30       _Tolower                   0000000180018a30 f   libcpmtd:_tolower.obj
 0001:00017c60       _Getctype                  0000000180018c60 f   libcpmtd:_tolower.obj
 0001:00017d10       _Toupper                   0000000180018d10 f   libcpmtd:_toupper.obj
 0001:00017f40       _Stoulx                    0000000180018f40 f   libcpmtd:xstoul.obj
 0001:000182b0       _Stolx                     00000001800192b0 f   libcpmtd:xstol.obj
 0001:00018430       _Stollx                    0000000180019430 f   libcpmtd:xstoll.obj
 0001:000185e0       _Stoullx                   00000001800195e0 f   libcpmtd:xstoull.obj
 0001:00018980       _Stofx                     0000000180019980 f   libcpmtd:xstof.obj
 0001:000189c0       _Stodx                     00000001800199c0 f   libcpmtd:xstod.obj
 0001:00018a90       _Stoldx                    0000000180019a90 f   libcpmtd:xstold.obj
 0001:00018ad0       _Getcvt                    0000000180019ad0 f   libcpmtd:xwctomb.obj
 0001:00018b00       _Mtxinit                   0000000180019b00 f   libcpmtd:xmtx.obj
 0001:00018b20       _Mtxdst                    0000000180019b20 f   libcpmtd:xmtx.obj
 0001:00018b40       _Mtxlock                   0000000180019b40 f   libcpmtd:xmtx.obj
 0001:00018b60       _Mtxunlock                 0000000180019b60 f   libcpmtd:xmtx.obj
 0001:00018b80       ?_Atexit@@YAXP6AXXZ@Z      0000000180019b80 f   libcpmtd:iosptrs.obj
 0001:00018be0       ??1_Init_atexit@@QEAA@XZ   0000000180019be0 f i libcpmtd:iosptrs.obj
 0001:00018d10       printf                     0000000180019d10 f   LIBCMTD:printf.obj
 0001:00018e60       _get_printf_count_output   0000000180019e60 f   LIBCMTD:printf.obj
 0001:00018e90       __GSHandlerCheck_EH        0000000180019e90 f   LIBCMTD:gshandlereh.obj
 0001:00018f50       __security_check_cookie    0000000180019f50 f   LIBCMTD:amdsecgs.obj
 0001:00018f70       __GSHandlerCheck           0000000180019f70 f   LIBCMTD:gshandler.obj
 0001:00018fb0       __GSHandlerCheckCommon     0000000180019fb0 f   LIBCMTD:gshandler.obj
 0001:000190b0       _cinit                     000000018001a0b0 f   LIBCMTD:crt0dat.obj
 0001:00019160       exit                       000000018001a160 f   LIBCMTD:crt0dat.obj
 0001:00019180       _exit                      000000018001a180 f   LIBCMTD:crt0dat.obj
 0001:000191a0       _cexit                     000000018001a1a0 f   LIBCMTD:crt0dat.obj
 0001:000191c0       _amsg_exit                 000000018001a1c0 f   LIBCMTD:crt0dat.obj
 0001:000191f0       __freeCrtMemory            000000018001a1f0 f   LIBCMTD:crt0dat.obj
 0001:00019580       __crtCorExitProcess        000000018001a580 f   LIBCMTD:crt0dat.obj
 0001:000195d0       __crtExitProcess           000000018001a5d0 f   LIBCMTD:crt0dat.obj
 0001:000195f0       _lockexit                  000000018001a5f0 f   LIBCMTD:crt0dat.obj
 0001:00019610       _unlockexit                000000018001a610 f   LIBCMTD:crt0dat.obj
 0001:00019630       _init_pointers             000000018001a630 f   LIBCMTD:crt0dat.obj
 0001:000196d0       _initterm_e                000000018001a6d0 f   LIBCMTD:crt0dat.obj
 0001:00019730       ??_M@YAXPEAX_KHP6AX0@Z@Z   000000018001a730 f   LIBCMTD:ehvecdtr.obj
 0001:000197e0       ?__ArrayUnwind@@YAXPEAX_KHP6AX0@Z@Z 000000018001a7e0 f   LIBCMTD:ehvecdtr.obj
 0001:00019870       ??_L@YAXPEAX_KHP6AX0@Z2@Z  000000018001a870 f   LIBCMTD:ehvecctr.obj
 0001:00019910       _alloca_probe              000000018001a910     LIBCMTD:chkstk.obj
 0001:00019910       __chkstk                   000000018001a910 f   LIBCMTD:chkstk.obj
 0001:00019960       ?_GetEstablisherFrame@@YAPEA_KPEA_KPEAU_xDISPATCHER_CONTEXT@@PEBU_s_FuncInfo@@0@Z 000000018001a960 f   LIBCMTD:trnsctrl.obj
 0001:00019ae0       _GetImageBase              000000018001aae0 f   LIBCMTD:trnsctrl.obj
 0001:00019b00       _GetThrowImageBase         000000018001ab00 f   LIBCMTD:trnsctrl.obj
 0001:00019b20       _SetImageBase              000000018001ab20 f   LIBCMTD:trnsctrl.obj
 0001:00019b40       _SetThrowImageBase         000000018001ab40 f   LIBCMTD:trnsctrl.obj
 0001:00019bf0       ?__FrameUnwindToEmptyState@@YAXPEA_KPEAU_xDISPATCHER_CONTEXT@@PEBU_s_FuncInfo@@@Z 000000018001abf0 f   LIBCMTD:trnsctrl.obj
 0001:00019c90       __CxxFrameHandler3         000000018001ac90 f   LIBCMTD:trnsctrl.obj
 0001:00019d50       ?__SehTransFilter@@YAHPEAU_EXCEPTION_POINTERS@@PEAUEHExceptionRecord@@PEA_KPEAU_CONTEXT@@PEAU_xDISPATCHER_CONTEXT@@PEBU_s_FuncInfo@@PEAH@Z 000000018001ad50 f   LIBCMTD:trnsctrl.obj
 0001:00019e10       _CallSETranslator          000000018001ae10 f   LIBCMTD:trnsctrl.obj
 0001:00019e90       ?_GetRangeOfTrysToCheck@@YAPEBU_s_TryBlockMapEntry@@PEA_KPEBU_s_FuncInfo@@HHPEAI2PEAU_xDISPATCHER_CONTEXT@@@Z 000000018001ae90 f   LIBCMTD:trnsctrl.obj
 0001:0001a0b0       _CreateFrameInfo           000000018001b0b0 f   LIBCMTD:trnsctrl.obj
 0001:0001a130       _IsExceptionObjectToBeDestroyed 000000018001b130 f   LIBCMTD:trnsctrl.obj
 0001:0001a190       _FindAndUnlinkFrame        000000018001b190 f   LIBCMTD:trnsctrl.obj
 0001:0001a220       _UnwindNestedFrames        000000018001b220 f   LIBCMTD:trnsctrl.obj
 0001:0001a360       ??3@YAXPEAX@Z              000000018001b360 f   LIBCMTD:dbgdel.obj
 0001:0001a420       __iob_func                 000000018001b420 f   LIBCMTD:_file.obj
 0001:0001a430       __initstdio                000000018001b430 f   LIBCMTD:_file.obj
 0001:0001a5f0       __endstdio                 000000018001b5f0 f   LIBCMTD:_file.obj
 0001:0001a620       _lock_file                 000000018001b620 f   LIBCMTD:_file.obj
 0001:0001a6a0       _lock_file2                000000018001b6a0 f   LIBCMTD:_file.obj
 0001:0001a6f0       _unlock_file               000000018001b6f0 f   LIBCMTD:_file.obj
 0001:0001a770       _unlock_file2              000000018001b770 f   LIBCMTD:_file.obj
 0001:0001a7c0       fwrite                     000000018001b7c0 f   LIBCMTD:fwrite.obj
 0001:0001a8d0       _fwrite_nolock             000000018001b8d0 f   LIBCMTD:fwrite.obj
 0001:0001af00       fputc                      000000018001bf00 f   LIBCMTD:fputc.obj
 0001:0001b1f0       ungetc                     000000018001c1f0 f   LIBCMTD:ungetc.obj
 0001:0001b2d0       _ungetc_nolock             000000018001c2d0 f   LIBCMTD:ungetc.obj
 0001:0001b5b0       memcpy_s                   000000018001c5b0 f   LIBCMTD:memcpy_s.obj
 0001:0001b800       fgetc                      000000018001c800 f   LIBCMTD:fgetc.obj
 0001:0001bad0       fgetpos                    000000018001cad0 f   LIBCMTD:fgetpos.obj
 0001:0001bc40       _fseeki64                  000000018001cc40 f   LIBCMTD:fseeki64.obj
 0001:0001bdd0       _fseeki64_nolock           000000018001cdd0 f   LIBCMTD:fseeki64.obj
 0001:0001bf50       fsetpos                    000000018001cf50 f   LIBCMTD:fsetpos.obj
 0001:0001c0b0       setvbuf                    000000018001d0b0 f   LIBCMTD:setvbuf.obj
 0001:0001c440       fflush                     000000018001d440 f   LIBCMTD:fflush.obj
 0001:0001c490       _fflush_nolock             000000018001d490 f   LIBCMTD:fflush.obj
 0001:0001c510       _flush                     000000018001d510 f   LIBCMTD:fflush.obj
 0001:0001c600       _flushall                  000000018001d600 f   LIBCMTD:fflush.obj
 0001:0001c7a0       memmove                    000000018001d7a0     LIBCMTD:memcpy.obj
 0001:0001c7a0       memcpy                     000000018001d7a0 f   LIBCMTD:memcpy.obj
 0001:0001cae0       _CxxThrowException         000000018001dae0 f   LIBCMTD:throw.obj
 0001:0001cba0       ??1type_info@@UEAA@XZ      000000018001dba0 f   LIBCMTD:typinfo.obj
 0001:0001cbd0       ??_Gtype_info@@UEAAPEAXI@Z 000000018001dbd0 f i LIBCMTD:typinfo.obj
 0001:0001cbd0       ??_Etype_info@@UEAAPEAXI@Z 000000018001dbd0 f i LIBCMTD:typinfo.obj
 0001:0001cc10       ??8type_info@@QEBA_NAEBV0@@Z 000000018001dc10 f   LIBCMTD:typinfo.obj
 0001:0001cc60       ??_Eexception@std@@UEAAPEAXI@Z 000000018001dc60 f i LIBCMTD:stdexcpt.obj
 0001:0001cc60       ??_Gexception@std@@UEAAPEAXI@Z 000000018001dc60 f i LIBCMTD:stdexcpt.obj
 0001:0001cca0       ??0exception@std@@QEAA@AEBQEBD@Z 000000018001dca0 f   LIBCMTD:stdexcpt.obj
 0001:0001ccf0       ??0exception@std@@QEAA@AEBQEBDH@Z 000000018001dcf0 f   LIBCMTD:stdexcpt.obj
 0001:0001cd30       ??0exception@std@@QEAA@AEBV01@@Z 000000018001dd30 f   LIBCMTD:stdexcpt.obj
 0001:0001cd80       ??4exception@std@@QEAAAEAV01@AEBV01@@Z 000000018001dd80 f   LIBCMTD:stdexcpt.obj
 0001:0001cdf0       ??1exception@std@@UEAA@XZ  000000018001ddf0 f   LIBCMTD:stdexcpt.obj
 0001:0001ce20       ?what@exception@std@@UEBAPEBDXZ 000000018001de20 f   LIBCMTD:stdexcpt.obj
 0001:0001ce60       ?_Copy_str@exception@std@@AEAAXPEBD@Z 000000018001de60 f   LIBCMTD:stdexcpt.obj
 0001:0001ced0       ?_Tidy@exception@std@@AEAAXXZ 000000018001ded0 f   LIBCMTD:stdexcpt.obj
 0001:0001cf10       ??0bad_cast@std@@QEAA@PEBD@Z 000000018001df10 f   LIBCMTD:stdexcpt.obj
 0001:0001cf50       ??_Gbad_cast@std@@UEAAPEAXI@Z 000000018001df50 f i LIBCMTD:stdexcpt.obj
 0001:0001cf50       ??_Ebad_cast@std@@UEAAPEAXI@Z 000000018001df50 f i LIBCMTD:stdexcpt.obj
 0001:0001cf90       ??0bad_cast@std@@QEAA@AEBV01@@Z 000000018001df90 f   LIBCMTD:stdexcpt.obj
 0001:0001cfd0       ??1bad_cast@std@@UEAA@XZ   000000018001dfd0 f   LIBCMTD:stdexcpt.obj
 0001:0001d000       fclose                     000000018001e000 f   LIBCMTD:fclose.obj
 0001:0001d100       _fclose_nolock             000000018001e100 f   LIBCMTD:fclose.obj
 0001:0001d240       _initp_misc_invarg         000000018001e240 f   LIBCMTD:invarg.obj
 0001:0001d260       _invalid_parameter         000000018001e260 f   LIBCMTD:invarg.obj
 0001:0001d2f0       _invoke_watson             000000018001e2f0 f   LIBCMTD:invarg.obj
 0001:0001d340       _call_reportfault          000000018001e340 f   LIBCMTD:invarg.obj
 0001:0001d510       _CrtDbgReportW             000000018001e510 f   LIBCMTD:dbgrptw.obj
 0001:0001d580       _CrtDbgReportWV            000000018001e580 f i LIBCMTD:dbgrptw.obj
 0001:0001d5d0       __crtMessageWindowW        000000018001e5d0 f   LIBCMTD:dbgrptw.obj
 0001:0001dbc0       _invoke_watson_if_error    000000018001ebc0 f i LIBCMTD:dbgrptw.obj
 0001:0001dc10       _invoke_watson_if_oneof    000000018001ec10 f i LIBCMTD:dbgrptw.obj
 0001:0001dc80       free                       000000018001ec80 f   LIBCMTD:dbgfree.obj
 0001:0001dca0       ??_V@YAXPEAX@Z             000000018001eca0 f   LIBCMTD:delete2.obj
 0001:0001dcc0       _malloc_dbg                000000018001ecc0 f   LIBCMTD:dbgheap.obj
 0001:0001dd10       _nh_malloc_dbg             000000018001ed10 f   LIBCMTD:dbgheap.obj
 0001:0001e300       _calloc_dbg_impl           000000018001f300 f   LIBCMTD:dbgheap.obj
 0001:0001e3b0       _calloc_dbg                000000018001f3b0 f   LIBCMTD:dbgheap.obj
 0001:0001e430       _realloc_dbg               000000018001f430 f   LIBCMTD:dbgheap.obj
 0001:0001ed60       _free_dbg                  000000018001fd60 f   LIBCMTD:dbgheap.obj
 0001:0001eda0       _free_dbg_nolock           000000018001fda0 f   LIBCMTD:dbgheap.obj
 0001:0001f440       _msize_dbg                 0000000180020440 f   LIBCMTD:dbgheap.obj
 0001:0001f6a0       _CrtCheckMemory            00000001800206a0 f   LIBCMTD:dbgheap.obj
 0001:0001fc40       _CrtSetDbgFlag             0000000180020c40 f   LIBCMTD:dbgheap.obj
 0001:0001fd70       _CrtIsValidPointer         0000000180020d70 f   LIBCMTD:dbgheap.obj
 0001:0001fdb0       _CrtIsValidHeapPointer     0000000180020db0 f   LIBCMTD:dbgheap.obj
 0001:0001fe10       _CrtMemCheckpoint          0000000180020e10 f   LIBCMTD:dbgheap.obj
 0001:00020090       _CrtMemDumpAllObjectsSince 0000000180021090 f   LIBCMTD:dbgheap.obj
 0001:000200e0       ??0_LocaleUpdate@@QEAA@PEAUlocaleinfo_struct@@@Z 00000001800210e0 f i LIBCMTD:dbgheap.obj
 0001:00020230       ??1_LocaleUpdate@@QEAA@XZ  0000000180021230 f i LIBCMTD:dbgheap.obj
 0001:000208c0       _CrtDumpMemoryLeaks        00000001800218c0 f   LIBCMTD:dbgheap.obj
 0001:00020960       _CrtSetCheckCount          0000000180021960 f   LIBCMTD:dbgheap.obj
 0001:00020980       _CrtGetCheckCount          0000000180021980 f   LIBCMTD:dbgheap.obj
 0001:000209a0       memcmp                     00000001800219a0 f   LIBCMTD:memcmp.obj
 0001:00020a70       ??2@YAPEAX_K@Z             0000000180021a70 f   LIBCMTD:new.obj
 0001:00020b00       sprintf_s                  0000000180021b00 f   LIBCMTD:sprintf.obj
 0001:00020b50       _snprintf_s                0000000180021b50 f   LIBCMTD:sprintf.obj
 0001:00020bb0       _fpmath                    0000000180021bb0 f   LIBCMTD:_fpinit_.obj
 0001:00020bd0       _cfltcvt_init              0000000180021bd0 f   LIBCMTD:_fpinit_.obj
 0001:00020c60       strcspn                    0000000180021c60 f   LIBCMTD:strcspn.obj
 0001:00020d80       memchr                     0000000180021d80 f   LIBCMTD:memchr.obj
 0001:00020df0       localeconv                 0000000180021df0 f   LIBCMTD:lconv.obj
 0001:00020e50       memmove_s                  0000000180021e50 f   LIBCMTD:memmove_s.obj
 0001:00021070       ldexp                      0000000180022070 f   LIBCMTD:_ldexp_.obj
 0001:00021390       _onexit                    0000000180022390 f   LIBCMTD:onexit.obj
 0001:00021590       atexit                     0000000180022590 f   LIBCMTD:onexit.obj
 0001:000215d0       __onexitinit               00000001800225d0 f   LIBCMTD:onexit.obj
 0001:00021640       _wassert                   0000000180022640 f   LIBCMTD:wassert.obj
 0001:00022560       _CRT_INIT                  0000000180023560 f   LIBCMTD:dllcrt0.obj
 0001:00022740       _DllMainCRTStartup         0000000180023740 f   LIBCMTD:dllcrt0.obj
 0001:000228e0       _purecall                  00000001800238e0 f   LIBCMTD:purevirt.obj
 0001:00022930       strerror                   0000000180023930 f   LIBCMTD:strerror.obj
 0001:00022a10       _get_sys_err_msg           0000000180023a10 f i LIBCMTD:strerror.obj
 0001:00022a70       strlen                     0000000180023a70 f   LIBCMTD:strlen.obj
 0001:00022b20       _fsopen                    0000000180023b20 f   LIBCMTD:fopen.obj
 0001:00022dc0       fseek                      0000000180023dc0 f   LIBCMTD:fseek.obj
 0001:00022f50       _fseek_nolock              0000000180023f50 f   LIBCMTD:fseek.obj
 0001:00023070       __InternalCxxFrameHandler  0000000180024070 f   LIBCMTD:frame.obj
 0001:00023c20       ??0bad_exception@std@@QEAA@PEBD@Z 0000000180024c20 f i LIBCMTD:frame.obj
 0001:00023c60       ??1bad_exception@std@@UEAA@XZ 0000000180024c60 f i LIBCMTD:frame.obj
 0001:00023c90       ??_Ebad_exception@std@@UEAAPEAXI@Z 0000000180024c90 f i LIBCMTD:frame.obj
 0001:00023c90       ??_Gbad_exception@std@@UEAAPEAXI@Z 0000000180024c90 f i LIBCMTD:frame.obj
 0001:00023cd0       ??0bad_exception@std@@QEAA@AEBV01@@Z 0000000180024cd0 f i LIBCMTD:frame.obj
 0001:00024080       __TypeMatch                0000000180025080 f   LIBCMTD:frame.obj
 0001:00024240       __FrameUnwindFilter        0000000180025240 f   LIBCMTD:frame.obj
 0001:000242d0       __FrameUnwindToState       00000001800252d0 f   LIBCMTD:frame.obj
 0001:00024610       __CxxCallCatchBlock        0000000180025610 f   LIBCMTD:frame.obj
 0001:000249a0       __BuildCatchObjectHelper   00000001800259a0 f   LIBCMTD:frame.obj
 0001:00024d20       __BuildCatchObject         0000000180025d20 f   LIBCMTD:frame.obj
 0001:00024e60       __DestructExceptionObject  0000000180025e60 f   LIBCMTD:frame.obj
 0001:00024ee0       __AdjustPointer            0000000180025ee0 f   LIBCMTD:frame.obj
 0001:00024f60       ?__uncaught_exception@@YA_NXZ 0000000180025f60 f   LIBCMTD:frame.obj
 0001:00025160       _locterm                   0000000180026160 f   LIBCMTD:setlocal.obj
 0001:000251b0       _free_locale               00000001800261b0 f   LIBCMTD:setlocal.obj
 0001:00025350       setlocale                  0000000180026350 f   LIBCMTD:setlocal.obj
 0001:00026580       _expandlocale              0000000180027580 f   LIBCMTD:setlocal.obj
 0001:00026930       ?sync@?$basic_streambuf@DU?$char_traits@D@std@@@std@@MEAAHXZ 0000000180027930 f   test.obj
 0001:00026930       _matherr                   0000000180027930 f   LIBCMTD:_matherr_.obj
 0001:00026930       ?showmanyc@?$basic_streambuf@DU?$char_traits@D@std@@@std@@MEAA_JXZ 0000000180027930 f   test.obj
 0001:00026930       __init_dummy               0000000180027930 f   LIBCMTD:setlocal.obj
 0001:00026930       __init_collate             0000000180027930 f   LIBCMTD:initcoll.obj
 0001:00026940       _strcats                   0000000180027940 f   LIBCMTD:setlocal.obj
 0001:000269f0       __lc_strtolc               00000001800279f0 f   LIBCMTD:setlocal.obj
 0001:00026c80       __lc_lctostr               0000000180027c80 f   LIBCMTD:setlocal.obj
 0001:00026d50       __crtLCMapStringA          0000000180027d50 f   LIBCMTD:a_map.obj
 0001:00027200       _MarkAllocaS               0000000180028200 f i LIBCMTD:a_map.obj
 0001:00027230       _freea                     0000000180028230 f i LIBCMTD:a_map.obj
 0001:00027320       __pctype_func              0000000180028320 f   LIBCMTD:ctype.obj
 0001:00027380       _isupper_l                 0000000180028380 f i LIBCMTD:_ctype.obj
 0001:00027420       isupper                    0000000180028420 f i LIBCMTD:_ctype.obj
 0001:00027460       _islower_l                 0000000180028460 f i LIBCMTD:_ctype.obj
 0001:00027500       islower                    0000000180028500 f i LIBCMTD:_ctype.obj
 0001:00027540       _isdigit_l                 0000000180028540 f i LIBCMTD:_ctype.obj
 0001:000275e0       isdigit                    00000001800285e0 f i LIBCMTD:_ctype.obj
 0001:00027620       _isspace_l                 0000000180028620 f i LIBCMTD:_ctype.obj
 0001:000276c0       isspace                    00000001800286c0 f i LIBCMTD:_ctype.obj
 0001:00027700       __init_ctype               0000000180028700 f   LIBCMTD:initctyp.obj
 0001:00027f60       ___lc_codepage_func        0000000180028f60 f   LIBCMTD:initctyp.obj
 0001:00027fc0       ___lc_handle_func          0000000180028fc0 f   LIBCMTD:initctyp.obj
 0001:00028020       _dosmaperr                 0000000180029020 f   LIBCMTD:dosmap.obj
 0001:00028050       _get_errno_from_oserr      0000000180029050 f   LIBCMTD:dosmap.obj
 0001:000280e0       _errno                     00000001800290e0 f   LIBCMTD:dosmap.obj
 0001:00028110       __doserrno                 0000000180029110 f   LIBCMTD:dosmap.obj
 0001:00028140       _tolower_l                 0000000180029140 f   LIBCMTD:tolower.obj
 0001:00028400       tolower                    0000000180029400 f   LIBCMTD:tolower.obj
 0001:00028450       _strtod_l                  0000000180029450 f   LIBCMTD:strtod.obj
 0001:00028790       strtod                     0000000180029790 f   LIBCMTD:strtod.obj
 0001:000287c0       abort                      00000001800297c0 f   LIBCMTD:abort.obj
 0001:00028840       _set_abort_behavior        0000000180029840 f   LIBCMTD:abort.obj
 0001:00028880       _itoa_s                    0000000180029880 f   LIBCMTD:xtoas.obj
 0001:00028e70       __C_specific_handler       0000000180029e70 f   LIBCMTD:chandler.obj
 0001:00029300       _stbuf                     000000018002a300 f   LIBCMTD:_sftbuf.obj
 0001:000294c0       _ftbuf                     000000018002a4c0 f   LIBCMTD:_sftbuf.obj
 0001:00029580       _output_l                  000000018002a580 f   LIBCMTD:output.obj
 0001:0002ac90       get_int_arg                000000018002bc90 f i LIBCMTD:output.obj
 0001:0002acf0       get_int64_arg              000000018002bcf0 f i LIBCMTD:output.obj
 0001:0002ad60       get_short_arg              000000018002bd60 f i LIBCMTD:output.obj
 0001:0002add0       __report_gsfailure         000000018002bdd0 f   LIBCMTD:gs_report.obj
 0001:0002af20       _RTC_Initialize            000000018002bf20 f   LIBCMTD:_initsect_.obj
 0001:0002af60       _RTC_Terminate             000000018002bf60 f   LIBCMTD:_initsect_.obj
 0001:0002afa0       _initp_misc_cfltcvt_tab    000000018002bfa0 f   LIBCMTD:cmiscdat.obj
 0001:0002aff0       _ValidateImageBase         000000018002bff0 f   LIBCMTD:pesect.obj
 0001:0002b070       _FindPESection             000000018002c070 f   LIBCMTD:pesect.obj
 0001:0002b120       _IsNonwritableInCurrentImage 000000018002c120 f   LIBCMTD:pesect.obj
 0001:0002b1b0       _FF_MSGBANNER              000000018002c1b0 f   LIBCMTD:crt0msg.obj
 0001:0002b200       _GET_RTERRMSG              000000018002c200 f   LIBCMTD:crt0msg.obj
 0001:0002b260       _NMSG_WRITE                000000018002c260 f   LIBCMTD:crt0msg.obj
 0001:0002b680       __updatetmbcinfo           000000018002c680 f   LIBCMTD:mbctype.obj
 0001:0002b780       _setmbcp                   000000018002c780 f   LIBCMTD:mbctype.obj
 0001:0002bb70       _setmbcp_nolock            000000018002cb70 f   LIBCMTD:mbctype.obj
 0001:0002c5b0       __initmbctable             000000018002d5b0 f   LIBCMTD:mbctype.obj
 0001:0002c5e0       _encoded_null              000000018002d5e0 f   LIBCMTD:tidtable.obj
 0001:0002c600       __set_flsgetvalue          000000018002d600 f   LIBCMTD:tidtable.obj
 0001:0002c610       _mtinit                    000000018002d610 f   LIBCMTD:tidtable.obj
 0001:0002c6e0       _mtterm                    000000018002d6e0 f   LIBCMTD:tidtable.obj
 0001:0002c710       _initptd                   000000018002d710 f   LIBCMTD:tidtable.obj
 0001:0002c810       _getptd_noexit             000000018002d810 f   LIBCMTD:tidtable.obj
 0001:0002c8e0       _getptd                    000000018002d8e0 f   LIBCMTD:tidtable.obj
 0001:0002c910       _freefls                   000000018002d910 f   LIBCMTD:tidtable.obj
 0001:0002cb20       _freeptd                   000000018002db20 f   LIBCMTD:tidtable.obj
 0001:0002cb70       _mtinitlocks               000000018002db70 f   LIBCMTD:mlock.obj
 0001:0002cc40       _mtdeletelocks             000000018002dc40 f   LIBCMTD:mlock.obj
 0001:0002cd60       _mtinitlocknum             000000018002dd60 f   LIBCMTD:mlock.obj
 0001:0002ce90       _lock                      000000018002de90 f   LIBCMTD:mlock.obj
 0001:0002cef0       _unlock                    000000018002def0 f   LIBCMTD:mlock.obj
 0001:0002cf20       _initp_eh_hooks            000000018002df20 f   LIBCMTD:hooks.obj
 0001:0002cf50       ?terminate@@YAXXZ          000000018002df50 f   LIBCMTD:hooks.obj
 0001:0002cf80       ?_inconsistency@@YAXXZ     000000018002df80 f   LIBCMTD:hooks.obj
 0001:0002cfb0       _initp_misc_winsig         000000018002dfb0 f   LIBCMTD:winsig.obj
 0001:0002cff0       raise                      000000018002dff0 f   LIBCMTD:winsig.obj
 0001:0002d430       __get_sigabrt              000000018002e430 f   LIBCMTD:winsig.obj
 0001:0002d450       _initp_misc_rand_s         000000018002e450 f   LIBCMTD:rand_s.obj
 0001:0002d470       __getlocaleinfo            000000018002e470 f   LIBCMTD:inithelp.obj
 0001:0002d850       _initp_misc_purevirt       000000018002e850 f   LIBCMTD:inithelp.obj
 0001:0002d870       _initp_heap_handler        000000018002e870 f   LIBCMTD:handler.obj
 0001:0002d890       _callnewh                  000000018002e890 f   LIBCMTD:handler.obj
 0001:0002d8d0       ?__StateFromIp@@YAHPEBU_s_FuncInfo@@PEAU_xDISPATCHER_CONTEXT@@_J@Z 000000018002e8d0 f   LIBCMTD:ehstate.obj
 0001:0002d9b0       ?__StateFromControlPc@@YAHPEBU_s_FuncInfo@@PEAU_xDISPATCHER_CONTEXT@@@Z 000000018002e9b0 f   LIBCMTD:ehstate.obj
 0001:0002d9e0       ?__GetCurrentState@@YAHPEA_KPEAU_xDISPATCHER_CONTEXT@@PEBU_s_FuncInfo@@@Z 000000018002e9e0 f   LIBCMTD:ehstate.obj
 0001:0002da40       ?__SetState@@YAXPEA_KPEAU_xDISPATCHER_CONTEXT@@PEBU_s_FuncInfo@@H@Z 000000018002ea40 f   LIBCMTD:ehstate.obj
 0001:0002da70       ?__SetUnwindTryBlock@@YAXPEA_KPEAU_xDISPATCHER_CONTEXT@@PEBU_s_FuncInfo@@H@Z 000000018002ea70 f   LIBCMTD:ehstate.obj
 0001:0002dae0       ?__GetUnwindTryBlock@@YAHPEA_KPEAU_xDISPATCHER_CONTEXT@@PEBU_s_FuncInfo@@@Z 000000018002eae0 f   LIBCMTD:ehstate.obj
 0001:0002db30       _ioinit                    000000018002eb30 f   LIBCMTD:ioinit.obj
 0001:0002e1f0       _ioterm                    000000018002f1f0 f   LIBCMTD:ioinit.obj
 0001:0002e2d0       _fcloseall                 000000018002f2d0 f   LIBCMTD:closeall.obj
 0001:0002e3d0       _flsbuf                    000000018002f3d0 f   LIBCMTD:_flsbuf.obj
 0001:0002e740       _write                     000000018002f740 f   LIBCMTD:write.obj
 0001:0002e9c0       _write_nolock              000000018002f9c0 f   LIBCMTD:write.obj
 0001:0002faf0       _fileno                    0000000180030af0 f   LIBCMTD:fileno.obj
 0001:0002fba0       _getbuf                    0000000180030ba0 f   LIBCMTD:_getbuf.obj
 0001:0002fcc0       memset                     0000000180030cc0 f   LIBCMTD:memset.obj
 0001:0002fdb0       _filbuf                    0000000180030db0 f   LIBCMTD:_filbuf.obj
 0001:000300c0       _ftelli64                  00000001800310c0 f   LIBCMTD:ftelli64.obj
 0001:000301a0       _ftelli64_nolock           00000001800311a0 f   LIBCMTD:ftelli64.obj
 0001:00030840       _lseeki64                  0000000180031840 f   LIBCMTD:lseeki64.obj
 0001:00030ad0       _lseeki64_nolock           0000000180031ad0 f   LIBCMTD:lseeki64.obj
 0001:00030c00       _freebuf                   0000000180031c00 f   LIBCMTD:_freebuf.obj
 0001:00030cc0       _commit                    0000000180031cc0 f   LIBCMTD:commit.obj
 0001:00030f20       ?_Type_info_dtor@type_info@@CAXPEAV1@@Z 0000000180031f20 f   LIBCMTD:typname.obj
 0001:00031030       strcmp                     0000000180032030 f   LIBCMTD:strcmp.obj
 0001:000310e0       strcpy_s                   00000001800320e0 f   LIBCMTD:strcpy_s.obj
 0001:00031550       malloc                     0000000180032550 f   LIBCMTD:dbgmalloc.obj
 0001:00031590       _close                     0000000180032590 f   LIBCMTD:close.obj
 0001:000317f0       _close_nolock              00000001800327f0 f   LIBCMTD:close.obj
 0001:000318e0       _CrtDefaultAllocHook       00000001800328e0 f   LIBCMTD:dbghook.obj
 0001:00031900       __crt_debugger_hook        0000000180032900 f   LIBCMTD:dbghook.obj
 0001:00031910       _CrtDbgBreak               0000000180032910 f   LIBCMTD:dbgrptt.obj
 0001:00031920       _VCrtDbgReportA            0000000180032920 f   LIBCMTD:dbgrptt.obj
 0001:00032340       _VCrtDbgReportW            0000000180033340 f   LIBCMTD:dbgrptt.obj
 0001:00032ed0       __crtMessageBoxW           0000000180033ed0 f   LIBCMTD:crtmboxw.obj
 0001:000331e0       _snwprintf_s               00000001800341e0 f   LIBCMTD:swprintf.obj
 0001:00033240       wcslen                     0000000180034240 f   LIBCMTD:wcslen.obj
 0001:00033290       wcscpy_s                   0000000180034290 f   LIBCMTD:wcscpy_s.obj
 0001:00033720       _malloc_base               0000000180034720 f   LIBCMTD:malloc.obj
 0001:000337c0       _heap_alloc_base           00000001800347c0 f i LIBCMTD:malloc.obj
 0001:00033830       _CrtDbgReport              0000000180034830 f   LIBCMTD:dbgrpt.obj
 0001:000338a0       _CrtDbgReportV             00000001800348a0 f i LIBCMTD:dbgrpt.obj
 0001:000338f0       __crtMessageWindowA        00000001800348f0 f   LIBCMTD:dbgrpt.obj
 0001:00033ee0       _heap_init                 0000000180034ee0 f   LIBCMTD:heapinit.obj
 0001:00033f50       _heap_term                 0000000180034f50 f   LIBCMTD:heapinit.obj
 0001:00033f80       _expand_base               0000000180034f80 f   LIBCMTD:expand.obj
 0001:00034150       _realloc_base              0000000180035150 f   LIBCMTD:realloc.obj
 0001:00034270       _free_base                 0000000180035270 f   LIBCMTD:free.obj
 0001:000342d0       _heapchk                   00000001800352d0 f   LIBCMTD:heapchk.obj
 0001:00034310       __addlocaleref             0000000180035310 f   LIBCMTD:localref.obj
 0001:00034460       __removelocaleref          0000000180035460 f   LIBCMTD:localref.obj
 0001:000345c0       __freetlocinfo             00000001800355c0 f   LIBCMTD:localref.obj
 0001:00034950       _updatetlocinfoEx_nolock   0000000180035950 f   LIBCMTD:localref.obj
 0001:000349f0       __updatetlocinfo           00000001800359f0 f   LIBCMTD:localref.obj
 0001:00034a90       _chvalidator               0000000180035a90 f   LIBCMTD:isctype.obj
 0001:00034af0       _chvalidator_l             0000000180035af0 f   LIBCMTD:isctype.obj
 0001:00034be0       _isctype_l                 0000000180035be0 f   LIBCMTD:isctype.obj
 0001:00034d80       _vsnprintf_helper          0000000180035d80 f   LIBCMTD:vsnprnc.obj
 0001:00035060       _vsprintf_s_l              0000000180036060 f   LIBCMTD:vsnprnc.obj
 0001:000353c0       _vsnprintf_s_l             00000001800363c0 f   LIBCMTD:vsnprnc.obj
 0001:00035940       _vsnprintf_s               0000000180036940 f   LIBCMTD:vsnprnc.obj
 0001:00035990       _forcdecpt                 0000000180036990 f   LIBCMTD:cvt.obj
 0001:000359b0       _forcdecpt_l               00000001800369b0 f   LIBCMTD:cvt.obj
 0001:00035ab0       _cropzeros                 0000000180036ab0 f   LIBCMTD:cvt.obj
 0001:00035ad0       _cropzeros_l               0000000180036ad0 f   LIBCMTD:cvt.obj
 0001:00035c40       _positive                  0000000180036c40 f   LIBCMTD:cvt.obj
 0001:00035c80       _fassign_l                 0000000180036c80 f   LIBCMTD:cvt.obj
 0001:00035cf0       _fassign                   0000000180036cf0 f   LIBCMTD:cvt.obj
 0001:00035d20       _cftoe_l                   0000000180036d20 f   LIBCMTD:cvt.obj
 0001:00036670       _cftoe                     0000000180037670 f   LIBCMTD:cvt.obj
 0001:000366c0       _cftoa_l                   00000001800376c0 f   LIBCMTD:cvt.obj
 0001:000371e0       ?strrchr@@YAPEADPEADH@Z    00000001800381e0 f i LIBCMTD:cvt.obj
 0001:00037200       _cftof_l                   0000000180038200 f   LIBCMTD:cvt.obj
 0001:000378d0       _cftog_l                   00000001800388d0 f   LIBCMTD:cvt.obj
 0001:00037cc0       _cfltcvt_l                 0000000180038cc0 f   LIBCMTD:cvt.obj
 0001:00037de0       _cfltcvt                   0000000180038de0 f   LIBCMTD:cvt.obj
 0001:00037e80       _set_exp                   0000000180038e80 f   LIBCMTD:_util_.obj
 0001:00037ed0       _sptype                    0000000180038ed0 f   LIBCMTD:_util_.obj
 0001:00037f50       _decomp                    0000000180038f50 f   LIBCMTD:_util_.obj
 0001:000380a0       _copysign                  00000001800390a0 f   LIBCMTD:__copysign_.obj
 0001:00038130       _handle_qnan2              0000000180039130 f   LIBCMTD:_fpexcept_.obj
 0001:000381c0       _except2                   00000001800391c0 f   LIBCMTD:_fpexcept_.obj
 0001:00038320       _raise_exc_ex              0000000180039320 f   LIBCMTD:_fpexcept_.obj
 0001:000389a0       _raise_exc                 00000001800399a0 f   LIBCMTD:_fpexcept_.obj
 0001:00038a00       _handle_exc                0000000180039a00 f   LIBCMTD:_fpexcept_.obj
 0001:00038e70       _umatherr                  0000000180039e70 f   LIBCMTD:_fpexcept_.obj
 0001:00038f40       _set_errno_from_matherr    0000000180039f40 f   LIBCMTD:_fpexcept_.obj
 0001:00038ff0       _errcode                   0000000180039ff0 f   LIBCMTD:_fpexcept_.obj
 0001:00039070       _statfp                    000000018003a070 f   LIBCMTD:_fpctrl_.obj
 0001:000390a0       _clrfp                     000000018003a0a0 f   LIBCMTD:_fpctrl_.obj
 0001:000390d0       _ctrlfp                    000000018003a0d0 f   LIBCMTD:_fpctrl_.obj
 0001:00039180       _set_statfp                000000018003a180 f   LIBCMTD:_fpctrl_.obj
 0001:000391c0       _itow_s                    000000018003a1c0 f   LIBCMTD:xtows.obj
 0001:000397d0       wcsncat_s                  000000018003a7d0 f   LIBCMTD:wcsncat_s.obj
 0001:00039f20       wcsncpy_s                  000000018003af20 f   LIBCMTD:wcsncpy_s.obj
 0001:0003a580       wcscat_s                   000000018003b580 f   LIBCMTD:wcscat_s.obj
 0001:0003ab80       fwprintf                   000000018003bb80 f   LIBCMTD:fwprintf.obj
 0001:0003ad40       _set_error_mode            000000018003bd40 f   LIBCMTD:errmode.obj
 0001:0003ae40       _vswprintf_helper          000000018003be40 f   LIBCMTD:vswprnc.obj
 0001:0003b1a0       _vswprintf_c_l             000000018003c1a0 f   LIBCMTD:vswprnc.obj
 0001:0003b210       _vsnwprintf_s_l            000000018003c210 f   LIBCMTD:vswprnc.obj
 0001:0003b790       _vsnwprintf_s              000000018003c790 f   LIBCMTD:vswprnc.obj
 0001:0003b7e0       _setenvp                   000000018003c7e0 f   LIBCMTD:stdenvp.obj
 0001:0003b9f0       _setargv                   000000018003c9f0 f   LIBCMTD:stdargv.obj
 0001:0003bb70       _set_pgmptr                000000018003cb70 f i LIBCMTD:stdargv.obj
 0001:0003c020       __crtGetEnvironmentStringsA 000000018003d020 f   LIBCMTD:a_env.obj
 0001:0003c190       __security_init_cookie     000000018003d190 f   LIBCMTD:gs_support.obj
 0001:0003c2a0       __CppXcptFilter            000000018003d2a0 f   LIBCMTD:winxfltr.obj
 0001:0003c2d0       _XcptFilter                000000018003d2d0 f   LIBCMTD:winxfltr.obj
 0001:0003c600       DllMain                    000000018003d600 f   LIBCMTD:dllmain.obj
 0001:0003c620       __sys_nerr                 000000018003d620 f   LIBCMTD:syserr.obj
 0001:0003c630       __sys_errlist              000000018003d630 f   LIBCMTD:syserr.obj
 0001:0003c640       strncpy_s                  000000018003d640 f   LIBCMTD:strncpy_s.obj
 0001:0003cc80       _openfile                  000000018003dc80 f   LIBCMTD:_open.obj
 0001:0003d6e0       _getstream                 000000018003e6e0 f   LIBCMTD:stream.obj
 0001:0003d970       _local_unwind              000000018003e970 f   LIBCMTD:jmpuwind.obj
 0001:0003d9a0       _NLG_Notify                000000018003e9a0 f   LIBCMTD:jmpuwind.obj
 0001:0003d9c0       __NLG_Dispatch2            000000018003e9c0 f   LIBCMTD:jmpuwind.obj
 0001:0003d9d0       __NLG_Return2              000000018003e9d0 f   LIBCMTD:jmpuwind.obj
 0001:0003d9e0       _lseek                     000000018003e9e0 f   LIBCMTD:lseek.obj
 0001:0003dc50       _lseek_nolock              000000018003ec50 f   LIBCMTD:lseek.obj
 0001:0003dd70       _ftell_nolock              000000018003ed70 f   LIBCMTD:ftell.obj
 0001:0003e130       ?_ValidateRead@@YAHPEBXI@Z 000000018003f130 f   LIBCMTD:validate.obj
 0001:0003e130       ?_ValidateWrite@@YAHPEAXI@Z 000000018003f130 f   LIBCMTD:validate.obj
 0001:0003e160       ?_ValidateExecute@@YAHP6A_JXZ@Z 000000018003f160 f   LIBCMTD:validate.obj
 0001:0003e1a0       _CallSettingFrame          000000018003f1a0 f   LIBCMTD:handlers.obj
 0001:0003e1e0       _GetNextInstrOffset        000000018003f1e0 f   LIBCMTD:handlers.obj
 0001:0003e1f0       __GSHandlerCheck_SEH       000000018003f1f0 f   LIBCMTD:gshandlerseh.obj
 0001:0003e2b0       __init_time                000000018003f2b0 f   LIBCMTD:inittime.obj
 0001:0003f690       __free_lc_time             0000000180040690 f   LIBCMTD:inittime.obj
 0001:0003fde0       __init_numeric             0000000180040de0 f   LIBCMTD:initnum.obj
 0001:00040320       __free_lconv_num           0000000180041320 f   LIBCMTD:initnum.obj
 0001:00040400       __init_monetary            0000000180041400 f   LIBCMTD:initmon.obj
 0001:00040be0       __free_lconv_mon           0000000180041be0 f   LIBCMTD:initmon.obj
 0001:00040e00       strncmp                    0000000180041e00 f   LIBCMTD:strncmp.obj
 0001:00040ec0       strpbrk                    0000000180041ec0 f   LIBCMTD:strpbrk.obj
 0001:00040fd0       __crtGetStringTypeA        0000000180041fd0 f   LIBCMTD:a_str.obj
 0001:00041200       strcat_s                   0000000180042200 f   LIBCMTD:strcat_s.obj
 0001:000417f0       __get_qualified_locale     00000001800427f0 f   LIBCMTD:getqloc.obj
 0001:000429c0       _isleadbyte_l              00000001800439c0 f i LIBCMTD:_wctype.obj
 0001:00042a20       isleadbyte                 0000000180043a20 f i LIBCMTD:_wctype.obj
 0001:00042a40       _fltin2                    0000000180043a40 f   LIBCMTD:_cfin_.obj
 0001:00042b90       _isatty                    0000000180043b90 f   LIBCMTD:isatty.obj
 0001:00042c90       _wctomb_s_l                0000000180043c90 f   LIBCMTD:wctomb.obj
 0001:00043130       wctomb_s                   0000000180044130 f   LIBCMTD:wctomb.obj
 0001:00043180       _output_s_l                0000000180044180 f   LIBCMTD:outputs.obj
 0001:00044c50       _fptrap                    0000000180045c50 f   LIBCMTD:crt0fp.obj
 0001:00044c70       __crtGetLocaleInfoA        0000000180045c70 f   LIBCMTD:a_loc.obj
 0001:00044e90       _alloc_osfhnd              0000000180045e90 f   LIBCMTD:osfinfo.obj
 0001:00045180       _set_osfhnd                0000000180046180 f   LIBCMTD:osfinfo.obj
 0001:00045290       _free_osfhnd               0000000180046290 f   LIBCMTD:osfinfo.obj
 0001:000453c0       _get_osfhandle             00000001800463c0 f   LIBCMTD:osfinfo.obj
 0001:000455a0       __lock_fhandle             00000001800465a0 f   LIBCMTD:osfinfo.obj
 0001:00045680       _unlock_fhandle            0000000180046680 f   LIBCMTD:osfinfo.obj
 0001:000456c0       _putwch_nolock             00000001800466c0 f   LIBCMTD:putwch.obj
 0001:00045730       _mbtowc_l                  0000000180046730 f   LIBCMTD:mbtowc.obj
 0001:00045a60       mbtowc                     0000000180046a60 f   LIBCMTD:mbtowc.obj
 0001:00045a90       _read                      0000000180046a90 f   LIBCMTD:read.obj
 0001:00045db0       _read_nolock               0000000180046db0 f   LIBCMTD:read.obj
 0001:000475b0       _mbstowcs_l_helper         00000001800485b0 f   LIBCMTD:mbstowcs.obj
 0001:00047af0       _mbstowcs_s_l              0000000180048af0 f   LIBCMTD:mbstowcs.obj
 0001:00048080       mbstowcs_s                 0000000180049080 f   LIBCMTD:mbstowcs.obj
 0001:000480d0       _wcstombs_l_helper         00000001800490d0 f   LIBCMTD:wcstombs.obj
 0001:00048950       _wcstombs_s_l              0000000180049950 f   LIBCMTD:wcstombs.obj
 0001:00048e30       wcstombs_s                 0000000180049e30 f   LIBCMTD:wcstombs.obj
 0001:00048e80       _woutput_l                 0000000180049e80 f   LIBCMTD:woutput.obj
 0001:0004a2f0       __crtMessageBoxA           000000018004b2f0 f   LIBCMTD:crtmbox.obj
 0001:0004a600       _atodbl_l                  000000018004b600 f   LIBCMTD:atodbl.obj
 0001:0004a790       _atoflt_l                  000000018004b790 f   LIBCMTD:atodbl.obj
 0001:0004a920       _fptostr                   000000018004b920 f   LIBCMTD:_fptostr.obj
 0001:0004ad50       _fltout2                   000000018004bd50 f   LIBCMTD:_cfout_.obj
 0001:0004ae70       __dtold                    000000018004be70 f   LIBCMTD:_cfout_.obj
 0001:0004b020       strrchr                    000000018004c020 f   LIBCMTD:strrchr.obj
 0001:0004b0b0       _get_fpsr                  000000018004c0b0 f   LIBCMTD:_fpsr_.obj
 0001:0004b0c0       _set_fpsr                  000000018004c0c0 f   LIBCMTD:_fpsr_.obj
 0001:0004b0ca       _fclrf                     000000018004c0ca f   LIBCMTD:_fpsr_.obj
 0001:0004b0de       _frnd                      000000018004c0de f   LIBCMTD:_fpsr_.obj
 0001:0004b100       _woutput_s_l               000000018004c100 f   LIBCMTD:woutputs.obj
 0001:0004c8d0       _ismbblead                 000000018004d8d0 f   LIBCMTD:ismbbyte.obj
 0001:0004c9d0       _sopen_helper              000000018004d9d0 f   LIBCMTD:open.obj
 0001:0004e1a0       _sopen_s                   000000018004f1a0 f   LIBCMTD:open.obj
 0001:0004e1f0       _mbsnbicmp_l               000000018004f1f0 f   LIBCMTD:mbsnbicm.obj
 0001:0004e8f0       _mbsnbicmp                 000000018004f8f0 f   LIBCMTD:mbsnbicm.obj
 0001:0004e920       _mbsnbcmp_l                000000018004f920 f   LIBCMTD:mbsnbcmp.obj
 0001:0004ed90       _mbsnbcmp                  000000018004fd90 f   LIBCMTD:mbsnbcmp.obj
 0001:0004edc0       _stricmp_l                 000000018004fdc0 f   LIBCMTD:stricmp.obj
 0001:0004f040       __ascii_stricmp            0000000180050040 f   LIBCMTD:stricmp.obj
 0001:0004f0d0       _stricmp                   00000001800500d0 f   LIBCMTD:stricmp.obj
 0001:0004f250       _strnicmp_l                0000000180050250 f   LIBCMTD:strnicmp.obj
 0001:0004f5e0       __ascii_strnicmp           00000001800505e0 f   LIBCMTD:strnicmp.obj
 0001:0004f6b0       _strnicmp                  00000001800506b0 f   LIBCMTD:strnicmp.obj
 0001:0004f8e0       atol                       00000001800508e0 f   LIBCMTD:atox.obj
 0001:0004f900       _ld12tod                   0000000180050900 f   LIBCMTD:_intrncvt_.obj
 0001:0004f930       _ld12cvt                   0000000180050930 f i LIBCMTD:_intrncvt_.obj
 0001:0004fc50       _RoundMan                  0000000180050c50 f i LIBCMTD:_intrncvt_.obj
 0001:0004fd60       _ZeroTail                  0000000180050d60 f i LIBCMTD:_intrncvt_.obj
 0001:0004fe10       _IncMan                    0000000180050e10 f i LIBCMTD:_intrncvt_.obj
 0001:0004fef0       __addl                     0000000180050ef0 f i LIBCMTD:_intrncvt_.obj
 0001:0004ff50       _CopyMan                   0000000180050f50 f i LIBCMTD:_intrncvt_.obj
 0001:0004ffc0       _FillZeroMan               0000000180050fc0 f i LIBCMTD:_intrncvt_.obj
 0001:00050000       _IsZeroMan                 0000000180051000 f i LIBCMTD:_intrncvt_.obj
 0001:00050040       _ShrMan                    0000000180051040 f i LIBCMTD:_intrncvt_.obj
 0001:00050190       _ld12tof                   0000000180051190 f   LIBCMTD:_intrncvt_.obj
 0001:000501c0       __strgtold12_l             00000001800511c0 f   LIBCMTD:_strgtold_.obj
 0001:000510b0       __multtenpow12             00000001800520b0 f i LIBCMTD:_strgtold_.obj
 0001:00051210       __ld12mul                  0000000180052210 f i LIBCMTD:_strgtold_.obj
 0001:00051780       __shl_12                   0000000180052780 f i LIBCMTD:_strgtold_.obj
 0001:00051820       __shr_12                   0000000180052820 f i LIBCMTD:_strgtold_.obj
 0001:000518c0       strtol                     00000001800528c0 f   LIBCMTD:strtol.obj
 0001:00052020       __initconout               0000000180053020 f   LIBCMTD:initcon.obj
 0001:00052070       __termconout               0000000180053070 f   LIBCMTD:initcon.obj
 0001:000520a0       _fputwc_nolock             00000001800530a0 f   LIBCMTD:fputwc.obj
 0001:00052510       $I10_OUTPUT                0000000180053510 f   LIBCMTD:_x10fout_.obj
 0001:00052da0       __add_12                   0000000180053da0 f i LIBCMTD:_x10fout_.obj
 0001:00052e70       _chsize_nolock             0000000180053e70 f   LIBCMTD:chsize.obj
 0001:00053100       _setmode_nolock            0000000180054100 f   LIBCMTD:setmode.obj
 0001:00053450       _get_fmode                 0000000180054450 f   LIBCMTD:setmode.obj
 0001:00053510       __mtold12                  0000000180054510 f   LIBCMTD:_mantold_.obj
 0001:00053710       _flswbuf                   0000000180054710 f   LIBCMTD:_flswbuf.obj
 0001:00053a94       RtlLookupFunctionEntry     0000000180054a94 f   kernel32:KERNEL32.dll
 0001:00053a9a       RtlUnwindEx                0000000180054a9a f   kernel32:KERNEL32.dll
 0001:00053aa0       RtlPcToFileHeader          0000000180054aa0 f   kernel32:KERNEL32.dll
 0001:00053aa6       RtlVirtualUnwind           0000000180054aa6 f   kernel32:KERNEL32.dll
 0001:00053ab0       itoa                       0000000180054ab0 f   LIBCMTD:xtoa.obj
 0001:00053ab0       _itoa                      0000000180054ab0 f   LIBCMTD:xtoa.obj
 0002:00000000       __imp_TerminateProcess     0000000180058000     kernel32:KERNEL32.dll
 0002:00000008       __imp_GetProcessHeap       0000000180058008     kernel32:KERNEL32.dll
 0002:00000010       __imp_SetEndOfFile         0000000180058010     kernel32:KERNEL32.dll
 0002:00000018       __imp_CreateFileW          0000000180058018     kernel32:KERNEL32.dll
 0002:00000020       __imp_CreateFileA          0000000180058020     kernel32:KERNEL32.dll
 0002:00000028       __imp_SetStdHandle         0000000180058028     kernel32:KERNEL32.dll
 0002:00000030       __imp_GetUserDefaultLCID   0000000180058030     kernel32:KERNEL32.dll
 0002:00000038       __imp_EnumSystemLocalesA   0000000180058038     kernel32:KERNEL32.dll
 0002:00000040       __imp_IsValidLocale        0000000180058040     kernel32:KERNEL32.dll
 0002:00000048       __imp_GetLocaleInfoA       0000000180058048     kernel32:KERNEL32.dll
 0002:00000050       __imp_GetStringTypeW       0000000180058050     kernel32:KERNEL32.dll
 0002:00000058       __imp_GetSystemTimeAsFileTime 0000000180058058     kernel32:KERNEL32.dll
 0002:00000060       __imp_GetCurrentProcessId  0000000180058060     kernel32:KERNEL32.dll
 0002:00000068       __imp_GetTickCount         0000000180058068     kernel32:KERNEL32.dll
 0002:00000070       __imp_QueryPerformanceCounter 0000000180058070     kernel32:KERNEL32.dll
 0002:00000078       __imp_GetEnvironmentStringsW 0000000180058078     kernel32:KERNEL32.dll
 0002:00000080       __imp_FreeEnvironmentStringsW 0000000180058080     kernel32:KERNEL32.dll
 0002:00000088       __imp_HeapFree             0000000180058088     kernel32:KERNEL32.dll
 0002:00000090       __imp_HeapQueryInformation 0000000180058090     kernel32:KERNEL32.dll
 0002:00000098       __imp_HeapReAlloc          0000000180058098     kernel32:KERNEL32.dll
 0002:000000a0       __imp_HeapDestroy          00000001800580a0     kernel32:KERNEL32.dll
 0002:000000a8       __imp_HeapCreate           00000001800580a8     kernel32:KERNEL32.dll
 0002:000000b0       __imp_GetVersion           00000001800580b0     kernel32:KERNEL32.dll
 0002:000000b8       __imp_HeapSetInformation   00000001800580b8     kernel32:KERNEL32.dll
 0002:000000c0       __imp_GetModuleFileNameA   00000001800580c0     kernel32:KERNEL32.dll
 0002:000000c8       __imp_HeapAlloc            00000001800580c8     kernel32:KERNEL32.dll
 0002:000000d0       __imp_OutputDebugStringW   00000001800580d0     kernel32:KERNEL32.dll
 0002:000000d8       __imp_OutputDebugStringA   00000001800580d8     kernel32:KERNEL32.dll
 0002:000000e0       __imp_CloseHandle          00000001800580e0     kernel32:KERNEL32.dll
 0002:000000e8       __imp_FlushFileBuffers     00000001800580e8     kernel32:KERNEL32.dll
 0002:000000f0       __imp_SetFilePointer       00000001800580f0     kernel32:KERNEL32.dll
 0002:000000f8       __imp_ReadFile             00000001800580f8     kernel32:KERNEL32.dll
 0002:00000100       __imp_GetConsoleMode       0000000180058100     kernel32:KERNEL32.dll
 0002:00000108       __imp_GetConsoleCP         0000000180058108     kernel32:KERNEL32.dll
 0002:00000110       __imp_GetStartupInfoW      0000000180058110     kernel32:KERNEL32.dll
 0002:00000118       __imp_SetHandleCount       0000000180058118     kernel32:KERNEL32.dll
 0002:00000120       __imp_GetLocaleInfoW       0000000180058120     kernel32:KERNEL32.dll
 0002:00000128       __imp_LoadLibraryW         0000000180058128     kernel32:KERNEL32.dll
 0002:00000130       __imp_InitializeCriticalSectionAndSpinCount 0000000180058130     kernel32:KERNEL32.dll
 0002:00000138       __imp_GetLastError         0000000180058138     kernel32:KERNEL32.dll
 0002:00000140       __imp_SetLastError         0000000180058140     kernel32:KERNEL32.dll
 0002:00000148       __imp_FlsFree              0000000180058148     kernel32:KERNEL32.dll
 0002:00000150       __imp_FlsAlloc             0000000180058150     kernel32:KERNEL32.dll
 0002:00000158       __imp_FlsGetValue          0000000180058158     kernel32:KERNEL32.dll
 0002:00000160       __imp_IsValidCodePage      0000000180058160     kernel32:KERNEL32.dll
 0002:00000168       __imp_GetOEMCP             0000000180058168     kernel32:KERNEL32.dll
 0002:00000170       __imp_GetACP               0000000180058170     kernel32:KERNEL32.dll
 0002:00000178       __imp_WriteFile            0000000180058178     kernel32:KERNEL32.dll
 0002:00000180       __imp_GetCPInfo            0000000180058180     kernel32:KERNEL32.dll
 0002:00000188       __imp_LCMapStringW         0000000180058188     kernel32:KERNEL32.dll
 0002:00000190       __imp_GetCommandLineA      0000000180058190     kernel32:KERNEL32.dll
 0002:00000198       __imp_WideCharToMultiByte  0000000180058198     kernel32:KERNEL32.dll
 0002:000001a0       __imp_InitializeCriticalSection 00000001800581a0     kernel32:KERNEL32.dll
 0002:000001a8       __imp_DeleteCriticalSection 00000001800581a8     kernel32:KERNEL32.dll
 0002:000001b0       __imp_EnterCriticalSection 00000001800581b0     kernel32:KERNEL32.dll
 0002:000001b8       __imp_LeaveCriticalSection 00000001800581b8     kernel32:KERNEL32.dll
 0002:000001c0       __imp_EncodePointer        00000001800581c0     kernel32:KERNEL32.dll
 0002:000001c8       __imp_DecodePointer        00000001800581c8     kernel32:KERNEL32.dll
 0002:000001d0       __imp_MultiByteToWideChar  00000001800581d0     kernel32:KERNEL32.dll
 0002:000001d8       __imp_GetProcAddress       00000001800581d8     kernel32:KERNEL32.dll
 0002:000001e0       __imp_GetModuleHandleW     00000001800581e0     kernel32:KERNEL32.dll
 0002:000001e8       __imp_ExitProcess          00000001800581e8     kernel32:KERNEL32.dll
 0002:000001f0       __imp_RtlLookupFunctionEntry 00000001800581f0     kernel32:KERNEL32.dll
 0002:000001f8       __imp_RtlUnwindEx          00000001800581f8     kernel32:KERNEL32.dll
 0002:00000200       __imp_RaiseException       0000000180058200     kernel32:KERNEL32.dll
 0002:00000208       __imp_RtlPcToFileHeader    0000000180058208     kernel32:KERNEL32.dll
 0002:00000210       __imp_GetCurrentProcess    0000000180058210     kernel32:KERNEL32.dll
 0002:00000218       __imp_UnhandledExceptionFilter 0000000180058218     kernel32:KERNEL32.dll
 0002:00000220       __imp_SetUnhandledExceptionFilter 0000000180058220     kernel32:KERNEL32.dll
 0002:00000228       __imp_IsDebuggerPresent    0000000180058228     kernel32:KERNEL32.dll
 0002:00000230       __imp_RtlVirtualUnwind     0000000180058230     kernel32:KERNEL32.dll
 0002:00000238       __imp_RtlCaptureContext    0000000180058238     kernel32:KERNEL32.dll
 0002:00000240       __imp_GetModuleFileNameW   0000000180058240     kernel32:KERNEL32.dll
 0002:00000248       __imp_HeapSize             0000000180058248     kernel32:KERNEL32.dll
 0002:00000250       __imp_HeapValidate         0000000180058250     kernel32:KERNEL32.dll
 0002:00000258       __imp_IsBadReadPtr         0000000180058258     kernel32:KERNEL32.dll
 0002:00000260       __imp_WriteConsoleW        0000000180058260     kernel32:KERNEL32.dll
 0002:00000268       __imp_GetFileType          0000000180058268     kernel32:KERNEL32.dll
 0002:00000270       __imp_GetStdHandle         0000000180058270     kernel32:KERNEL32.dll
 0002:00000278       __imp_GetCurrentThreadId   0000000180058278     kernel32:KERNEL32.dll
 0002:00000280       __imp_FlsSetValue          0000000180058280     kernel32:KERNEL32.dll
 0002:00000288       \177KERNEL32_NULL_THUNK_DATA 0000000180058288     kernel32:KERNEL32.dll
 0002:00000290       __imp_SDL_GameControllerAddMappingsFromRW 0000000180058290     SDL2:SDL2.dll
 0002:00000298       __imp_SDL_FreeSurface      0000000180058298     SDL2:SDL2.dll
 0002:000002a0       __imp_SDL_RenderCopy       00000001800582a0     SDL2:SDL2.dll
 0002:000002a8       __imp_SDL_QueryTexture     00000001800582a8     SDL2:SDL2.dll
 0002:000002b0       __imp_SDL_CreateTextureFromSurface 00000001800582b0     SDL2:SDL2.dll
 0002:000002b8       __imp_SDL_RenderPresent    00000001800582b8     SDL2:SDL2.dll
 0002:000002c0       __imp_SDL_Delay            00000001800582c0     SDL2:SDL2.dll
 0002:000002c8       __imp_SDL_RenderClear      00000001800582c8     SDL2:SDL2.dll
 0002:000002d0       __imp_SDL_SetRenderDrawColor 00000001800582d0     SDL2:SDL2.dll
 0002:000002d8       __imp_SDL_SetWindowSize    00000001800582d8     SDL2:SDL2.dll
 0002:000002e0       __imp_SDL_MinimizeWindow   00000001800582e0     SDL2:SDL2.dll
 0002:000002e8       __imp_SDL_SetWindowFullscreen 00000001800582e8     SDL2:SDL2.dll
 0002:000002f0       __imp_SDL_SetWindowIcon    00000001800582f0     SDL2:SDL2.dll
 0002:000002f8       __imp_SDL_RenderCopyEx     00000001800582f8     SDL2:SDL2.dll
 0002:00000300       __imp_SDL_SetTextureAlphaMod 0000000180058300     SDL2:SDL2.dll
 0002:00000308       __imp_SDL_SetTextureBlendMode 0000000180058308     SDL2:SDL2.dll
 0002:00000310       __imp_SDL_SetTextureColorMod 0000000180058310     SDL2:SDL2.dll
 0002:00000318       __imp_SDL_MapRGB           0000000180058318     SDL2:SDL2.dll
 0002:00000320       __imp_SDL_SetColorKey      0000000180058320     SDL2:SDL2.dll
 0002:00000328       __imp_SDL_DestroyRenderer  0000000180058328     SDL2:SDL2.dll
 0002:00000330       __imp_SDL_DestroyWindow    0000000180058330     SDL2:SDL2.dll
 0002:00000338       __imp_SDL_Quit             0000000180058338     SDL2:SDL2.dll
 0002:00000340       __imp_SDL_Init             0000000180058340     SDL2:SDL2.dll
 0002:00000348       __imp_SDL_GetError         0000000180058348     SDL2:SDL2.dll
 0002:00000350       __imp_SDL_SetHint          0000000180058350     SDL2:SDL2.dll
 0002:00000358       __imp_SDL_RWFromFile       0000000180058358     SDL2:SDL2.dll
 0002:00000360       __imp_SDL_DestroyTexture   0000000180058360     SDL2:SDL2.dll
 0002:00000368       __imp_SDL_NumJoysticks     0000000180058368     SDL2:SDL2.dll
 0002:00000370       __imp_SDL_IsGameController 0000000180058370     SDL2:SDL2.dll
 0002:00000378       __imp_SDL_GameControllerOpen 0000000180058378     SDL2:SDL2.dll
 0002:00000380       __imp_SDL_GameControllerGetJoystick 0000000180058380     SDL2:SDL2.dll
 0002:00000388       __imp_SDL_JoystickOpen     0000000180058388     SDL2:SDL2.dll
 0002:00000390       __imp_SDL_CreateWindow     0000000180058390     SDL2:SDL2.dll
 0002:00000398       __imp_SDL_CreateRenderer   0000000180058398     SDL2:SDL2.dll
 0002:000003a0       __imp_SDL_RenderSetLogicalSize 00000001800583a0     SDL2:SDL2.dll
 0002:000003a8       __imp_SDL_GetKeyboardState 00000001800583a8     SDL2:SDL2.dll
 0002:000003b0       __imp_SDL_SetRenderDrawBlendMode 00000001800583b0     SDL2:SDL2.dll
 0002:000003b8       __imp_SDL_RenderFillRect   00000001800583b8     SDL2:SDL2.dll
 0002:000003c0       __imp_SDL_PollEvent        00000001800583c0     SDL2:SDL2.dll
 0002:000003c8       __imp_SDL_GetMouseState    00000001800583c8     SDL2:SDL2.dll
 0002:000003d0       __imp_SDL_CreateRGBSurfaceFrom 00000001800583d0     SDL2:SDL2.dll
 0002:000003d8       \177SDL2_NULL_THUNK_DATA   00000001800583d8     SDL2:SDL2.dll
 0002:000003e0       __imp_IMG_Load             00000001800583e0     SDL2_image:SDL2_image.dll
 0002:000003e8       __imp_IMG_Init             00000001800583e8     SDL2_image:SDL2_image.dll
 0002:000003f0       \177SDL2_image_NULL_THUNK_DATA 00000001800583f0     SDL2_image:SDL2_image.dll
 0002:000003f8       __imp_Mix_OpenAudio        00000001800583f8     SDL2_mixer:SDL2_mixer.dll
 0002:00000400       \177SDL2_mixer_NULL_THUNK_DATA 0000000180058400     SDL2_mixer:SDL2_mixer.dll
 0002:00000408       __imp_TTF_RenderText_Blended 0000000180058408     SDL2_ttf:SDL2_ttf.dll
 0002:00000410       __imp_TTF_OpenFont         0000000180058410     SDL2_ttf:SDL2_ttf.dll
 0002:00000418       __imp_TTF_Init             0000000180058418     SDL2_ttf:SDL2_ttf.dll
 0002:00000420       __imp_TTF_CloseFont        0000000180058420     SDL2_ttf:SDL2_ttf.dll
 0002:00000428       __imp_TTF_SizeText         0000000180058428     SDL2_ttf:SDL2_ttf.dll
 0002:00000430       __imp_TTF_SetFontStyle     0000000180058430     SDL2_ttf:SDL2_ttf.dll
 0002:00000438       \177SDL2_ttf_NULL_THUNK_DATA 0000000180058438     SDL2_ttf:SDL2_ttf.dll
 0002:00000440       __xc_a                     0000000180058440     LIBCMTD:crt0init.obj
 0002:000005c0       __xc_z                     00000001800585c0     LIBCMTD:crt0init.obj
 0002:000005c8       __xi_a                     00000001800585c8     LIBCMTD:crt0init.obj
 0002:000005f0       __xi_z                     00000001800585f0     LIBCMTD:crt0init.obj
 0002:000005f8       __xp_a                     00000001800585f8     LIBCMTD:crt0init.obj
 0002:00000618       __xp_z                     0000000180058618     LIBCMTD:crt0init.obj
 0002:00000620       __xt_a                     0000000180058620     LIBCMTD:crt0init.obj
 0002:00000628       __xt_z                     0000000180058628     LIBCMTD:crt0init.obj
 0002:00000ba0       ??_C@_06HPIHNGNL@Error?6?$AA@ 0000000180058ba0     test.obj
 0002:00000c70       ??_C@_1IO@LGPKEFMA@?$AAc?$AA?3?$AA?2?$AAp?$AAr?$AAo?$AAg?$AAr?$AAa?$AAm?$AA?5?$AAf?$AAi?$AAl?$AAe?$AAs?$AA?5?$AA?$CI?$AAx?$AA8?$AA6?$AA?$CJ?$AA?2?$AAm?$AAi?$AAc?$AAr?$AAo?$AAs?$AAo?$AAf?$AAt@ 0000000180058c70     test.obj
 0002:00000d88       ??_7?$basic_ios@DU?$char_traits@D@std@@@std@@6B@ 0000000180058d88     test.obj
 0002:00000d90       ??_7ios_base@std@@6B@      0000000180058d90     test.obj
 0002:00000e58       ??_7?$basic_ifstream@DU?$char_traits@D@std@@@std@@6B@ 0000000180058e58     test.obj
 0002:00000e60       ??_8?$basic_ifstream@DU?$char_traits@D@std@@@std@@7B@ 0000000180058e60     test.obj
 0002:00000e68       ??_7?$basic_istream@DU?$char_traits@D@std@@@std@@6B@ 0000000180058e68     test.obj
 0002:00000ed0       ??_7?$basic_filebuf@DU?$char_traits@D@std@@@std@@6B@ 0000000180058ed0     test.obj
 0002:00000f80       ??_7?$basic_streambuf@DU?$char_traits@D@std@@@std@@6B@ 0000000180058f80     test.obj
 0002:00001088       ??_7?$basic_stringstream@DU?$char_traits@D@std@@V?$allocator@D@2@@std@@6B@ 0000000180059088     test.obj
 0002:00001090       ??_8?$basic_stringstream@DU?$char_traits@D@std@@V?$allocator@D@2@@std@@7B?$basic_ostream@DU?$char_traits@D@std@@@1@@ 0000000180059090     test.obj
 0002:00001098       ??_8?$basic_stringstream@DU?$char_traits@D@std@@V?$allocator@D@2@@std@@7B?$basic_istream@DU?$char_traits@D@std@@@1@@ 0000000180059098     test.obj
 0002:000010f8       ??_7?$basic_iostream@DU?$char_traits@D@std@@@std@@6B@ 00000001800590f8     test.obj
 0002:00001100       ??_7?$basic_ostream@DU?$char_traits@D@std@@@std@@6B@ 0000000180059100     test.obj
 0002:00001140       ??_7?$basic_stringbuf@DU?$char_traits@D@std@@V?$allocator@D@2@@std@@6B@ 0000000180059140     test.obj
 0002:000011e8       ??_C@_1DC@POOIKBAO@?$AAI?$AAT?$AAE?$AAR?$AAA?$AAT?$AAO?$AAR?$AA?5?$AAL?$AAI?$AAS?$AAT?$AA?5?$AAC?$AAO?$AAR?$AAR?$AAU?$AAP?$AAT?$AAE?$AAD?$AA?$CB?$AA?$AA@ 00000001800591e8     test.obj
 0002:00001220       ??_C@_1JA@DBMECOPL@?$AAc?$AA?3?$AA?2?$AAp?$AAr?$AAo?$AAg?$AAr?$AAa?$AAm?$AA?5?$AAf?$AAi?$AAl?$AAe?$AAs?$AA?5?$AA?$CI?$AAx?$AA8?$AA6?$AA?$CJ?$AA?2?$AAm?$AAi?$AAc?$AAr?$AAo?$AAs?$AAo?$AAf?$AAt@ 0000000180059220     test.obj
 0002:00001308       ?npos@?$basic_string@DU?$char_traits@D@std@@V?$allocator@D@2@@std@@2_KB 0000000180059308     test.obj
 0002:00001310       ??_C@_1IO@GEGAMENF@?$AAc?$AA?3?$AA?2?$AAp?$AAr?$AAo?$AAg?$AAr?$AAa?$AAm?$AA?5?$AAf?$AAi?$AAl?$AAe?$AAs?$AA?5?$AA?$CI?$AAx?$AA8?$AA6?$AA?$CJ?$AA?2?$AAm?$AAi?$AAc?$AAr?$AAo?$AAs?$AAo?$AAf?$AAt@ 0000000180059310     test.obj
 0002:000013f8       ??_C@_0BF@OOHOMBOF@ios_base?3?3eofbit?5set?$AA@ 00000001800593f8     test.obj
 0002:00001410       ??_C@_0BG@FMKFHCIL@ios_base?3?3failbit?5set?$AA@ 0000000180059410     test.obj
 0002:00001428       ??_C@_0BF@PHHKMMFD@ios_base?3?3badbit?5set?$AA@ 0000000180059428     test.obj
 0002:00001440       ??_7failure@ios_base@std@@6B@ 0000000180059440     test.obj
 0002:00001478       ??_7system_error@std@@6B@  0000000180059478     test.obj
 0002:000014b8       ??_8?$basic_istream@DU?$char_traits@D@std@@@std@@7B@ 00000001800594b8     test.obj
 0002:000015a8       ??_8?$basic_iostream@DU?$char_traits@D@std@@@std@@7B?$basic_istream@DU?$char_traits@D@std@@@1@@ 00000001800595a8     test.obj
 0002:00001638       ?_Stz@?$fpos@H@std@@0HB    0000000180059638     test.obj
 0002:00001640       ??_C@_0BA@JFNIOLAK@string?5too?5long?$AA@ 0000000180059640     test.obj
 0002:00001650       ??_C@_0BI@CFPLBAOH@invalid?5string?5position?$AA@ 0000000180059650     test.obj
 0002:00001698       ??_8?$basic_ostream@DU?$char_traits@D@std@@@std@@7B@ 0000000180059698     test.obj
 0002:00001698       ??_8?$basic_iostream@DU?$char_traits@D@std@@@std@@7B?$basic_ostream@DU?$char_traits@D@std@@@1@@ 0000000180059698     test.obj
 0002:000016d0       ??_C@_0EI@INNFLINN@c?3?2program?5files?5?$CIx86?$CJ?2microsoft@ 00000001800596d0     test.obj
 0002:00001750       ??_C@_0EJ@DKHAGIAK@c?3?2program?5files?5?$CIx86?$CJ?2microsoft@ 0000000180059750     test.obj
 0002:000017a0       ??_C@_1BO@MEPPHOO@?$AA?$CC?$AAo?$AAu?$AAt?$AA?5?$AAo?$AAf?$AA?5?$AAr?$AAa?$AAn?$AAg?$AAe?$AA?$CC?$AA?$AA@ 00000001800597a0     test.obj
 0002:000017c0       ??_C@_1NA@ICLOEHKI@?$AAs?$AAt?$AAd?$AA?3?$AA?3?$AA_?$AAS?$AAt?$AAr?$AAi?$AAn?$AAg?$AA_?$AAc?$AAo?$AAn?$AAs?$AAt?$AA_?$AAi?$AAt?$AAe?$AAr?$AAa?$AAt?$AAo?$AAr?$AA?$DM?$AAc?$AAh?$AAa?$AAr@ 00000001800597c0     test.obj
 0002:00001890       ??_C@_1FG@IBPIFFN@?$AA?$CC?$AAS?$AAt?$AAa?$AAn?$AAd?$AAa?$AAr?$AAd?$AA?5?$AAC?$AA?$CL?$AA?$CL?$AA?5?$AAL?$AAi?$AAb?$AAr?$AAa?$AAr?$AAi?$AAe?$AAs?$AA?5?$AAO?$AAu?$AAt?$AA?5?$AAo?$AAf?$AA?5?$AAR@ 0000000180059890     test.obj
 0002:000018e8       ??_C@_0CE@OFMIGAMM@Standard?5C?$CL?$CL?5Libraries?5Out?5of?5Ra@ 00000001800598e8     test.obj
 0002:00001910       ??_C@_1EG@CNCHLAOB@?$AAs?$AAt?$AAr?$AAi?$AAn?$AAg?$AA?5?$AAi?$AAt?$AAe?$AAr?$AAa?$AAt?$AAo?$AAr?$AA?5?$AAn?$AAo?$AAt?$AA?5?$AAd?$AAe?$AAr?$AAe?$AAf?$AAe?$AAr?$AAe?$AAn?$AAc?$AAa?$AAb@ 0000000180059910     test.obj
 0002:00001a48       ??_C@_08EPJLHIJG@bad?5cast?$AA@ 0000000180059a48     test.obj
 0002:00001a90       ??_C@_0EH@NEEAIMIH@c?3?2program?5files?5?$CIx86?$CJ?2microsoft@ 0000000180059a90     test.obj
 0002:00001b08       ??_C@_0BA@ELKIONDK@bad?5locale?5name?$AA@ 0000000180059b08     test.obj
 0002:00001b80       ??_7?$ctype@D@std@@6B@     0000000180059b80     test.obj
 0002:00001bc8       ??_7ctype_base@std@@6B@    0000000180059bc8     test.obj
 0002:00001bd0       ??_C@_1IO@NFIEJNFO@?$AAc?$AA?3?$AA?2?$AAp?$AAr?$AAo?$AAg?$AAr?$AAa?$AAm?$AA?5?$AAf?$AAi?$AAl?$AAe?$AAs?$AA?5?$AA?$CI?$AAx?$AA8?$AA6?$AA?$CJ?$AA?2?$AAm?$AAi?$AAc?$AAr?$AAo?$AAs?$AAo?$AAf?$AAt@ 0000000180059bd0     test.obj
 0002:00001c88       ??_C@_1CK@EOPGIILJ@?$AAi?$AAn?$AAv?$AAa?$AAl?$AAi?$AAd?$AA?5?$AAn?$AAu?$AAl?$AAl?$AA?5?$AAp?$AAo?$AAi?$AAn?$AAt?$AAe?$AAr?$AA?$AA@ 0000000180059c88     test.obj
 0002:00001db0       ??_C@_0EH@FHANIOCG@c?3?2program?5files?5?$CIx86?$CJ?2microsoft@ 0000000180059db0     test.obj
 0002:00001ec0       ??_7?$num_put@DV?$ostreambuf_iterator@DU?$char_traits@D@std@@@std@@@std@@6B@ 0000000180059ec0     test.obj
 0002:00001f40       ??_C@_1IO@ONMJPEEO@?$AAc?$AA?3?$AA?2?$AAp?$AAr?$AAo?$AAg?$AAr?$AAa?$AAm?$AA?5?$AAf?$AAi?$AAl?$AAe?$AAs?$AA?5?$AA?$CI?$AAx?$AA8?$AA6?$AA?$CJ?$AA?2?$AAm?$AAi?$AAc?$AAr?$AAo?$AAs?$AAo?$AAf?$AAt@ 0000000180059f40     test.obj
 0002:00001fd0       ??_C@_02EAOCLKAK@ld?$AA@   0000000180059fd0     test.obj
 0002:00001fd4       ??_C@_02BDDLJJBK@lu?$AA@   0000000180059fd4     test.obj
 0002:00001fd8       ??_C@_02HIKPPMOK@Ld?$AA@   0000000180059fd8     test.obj
 0002:00001fdc       ??_C@_02CLHGNPPK@Lu?$AA@   0000000180059fdc     test.obj
 0002:00001fe0       __real@38aa95a5b7f87a0f    0000000180059fe0     test.obj
 0002:00001fe8       __real@0000000000000000    0000000180059fe8     test.obj
 0002:00001ff0       __real@4202a05f20000000    0000000180059ff0     test.obj
 0002:00001ff8       __real@4733426172c74d82    0000000180059ff8     test.obj
 0002:00002000       __mask@@NegDouble@         000000018005a000     test.obj
 0002:00002010       __real@3fe0000000000000    000000018005a010     test.obj
 0002:00002018       ??_C@_02BBAHNLBA@?$CFp?$AA@ 000000018005a018     test.obj
 0002:00002048       ??_C@_01KGKMHCOC@e?$AA@    000000018005a048     test.obj
 0002:0000204c       ??_C@_01DDCIFGEA@E?$AA@    000000018005a04c     test.obj
 0002:00002078       ??_C@_1DM@GMPLOCPK@?$AAs?$AAt?$AAr?$AAi?$AAn?$AAg?$AA?5?$AAs?$AAu?$AAb?$AAs?$AAc?$AAr?$AAi?$AAp?$AAt?$AA?5?$AAo?$AAu?$AAt?$AA?5?$AAo?$AAf?$AA?5?$AAr?$AAa?$AAn?$AAg?$AAe?$AA?$AA@ 000000018005a078     test.obj
 0002:00002150       ??_7?$num_get@DV?$istreambuf_iterator@DU?$char_traits@D@std@@@std@@@std@@6B@ 000000018005a150     test.obj
 0002:00002358       ??_C@_0BH@HHDGIIFB@0123456789abcdefABCDEF?$AA@ 000000018005a358     test.obj
 0002:000023c8       ??_C@_0BB@JCEFLFJE@0123456789abcdef?$AA@ 000000018005a3c8     test.obj
 0002:000023e0       ??_C@_1FE@NIBPPHHA@?$AAi?$AAs?$AAt?$AAr?$AAe?$AAa?$AAm?$AAb?$AAu?$AAf?$AA_?$AAi?$AAt?$AAe?$AAr?$AAa?$AAt?$AAo?$AAr?$AA?5?$AAi?$AAs?$AA?5?$AAn?$AAo?$AAt?$AA?5?$AAd?$AAe?$AAr?$AAe?$AAf@ 000000018005a3e0     test.obj
 0002:00002440       ??_C@_1JC@MLMFCALB@?$AAc?$AA?3?$AA?2?$AAp?$AAr?$AAo?$AAg?$AAr?$AAa?$AAm?$AA?5?$AAf?$AAi?$AAl?$AAe?$AAs?$AA?5?$AA?$CI?$AAx?$AA8?$AA6?$AA?$CJ?$AA?2?$AAm?$AAi?$AAc?$AAr?$AAo?$AAs?$AAo?$AAf?$AAt@ 000000018005a440     test.obj
 0002:000024e0       ??_C@_1FC@CLFDMKBM@?$AAi?$AAs?$AAt?$AAr?$AAe?$AAa?$AAm?$AAb?$AAu?$AAf?$AA_?$AAi?$AAt?$AAe?$AAr?$AAa?$AAt?$AAo?$AAr?$AA?5?$AAi?$AAs?$AA?5?$AAn?$AAo?$AAt?$AA?5?$AAi?$AAn?$AAc?$AAr?$AAe@ 000000018005a4e0     test.obj
 0002:000025a0       ??_7?$codecvt@DDH@std@@6B@ 000000018005a5a0     test.obj
 0002:000025e0       ??_7codecvt_base@std@@6B@  000000018005a5e0     test.obj
 0002:00002628       ??_7?$numpunct@D@std@@6B@  000000018005a628     test.obj
 0002:000026b8       ??_C@_00CNPNBAHC@?$AA@     000000018005a6b8     test.obj
 0002:000026bc       ??_C@_05LAPONLG@false?$AA@ 000000018005a6bc     test.obj
 0002:000026c4       ??_C@_04LOAJBDKD@true?$AA@ 000000018005a6c4     test.obj
 0002:000026d0       ??_C@_1CO@DGLIKNHI@?$AAi?$AAn?$AAv?$AAa?$AAl?$AAi?$AAd?$AA?5?$AAi?$AAt?$AAe?$AAr?$AAa?$AAt?$AAo?$AAr?$AA?5?$AAr?$AAa?$AAn?$AAg?$AAe?$AA?$AA@ 000000018005a6d0     test.obj
 0002:00002788       ??_7?$basic_ofstream@DU?$char_traits@D@std@@@std@@6B@ 000000018005a788     test.obj
 0002:00002790       ??_8?$basic_ofstream@DU?$char_traits@D@std@@@std@@7B@ 000000018005a790     test.obj
 0002:00002ac8       ?_BADOFF@std@@3_JB         000000018005aac8     libcpmtd:ios.obj
 0002:00002ad0       ??_C@_0DH@PAMLBPJF@f?3?2dd?2vctools?2crt_bld?2self_64_am@ 000000018005aad0     libcpmtd:xmutex.obj
 0002:00002b08       ??_C@_07DCLBNMLN@generic?$AA@ 000000018005ab08     libcpmtd:syserror.obj
 0002:00002b18       ??_7_Generic_error_category@std@@6B@ 000000018005ab18     libcpmtd:syserror.obj
 0002:00002b50       ??_7error_category@std@@6B@ 000000018005ab50     libcpmtd:syserror.obj
 0002:00002b88       ??_7bad_alloc@std@@6B@     000000018005ab88     libcpmtd:syserror.obj
 0002:00002b98       ??_C@_08LLGCOLLL@iostream?$AA@ 000000018005ab98     libcpmtd:syserror.obj
 0002:00002bb0       ??_7_Iostream_error_category@std@@6B@ 000000018005abb0     libcpmtd:syserror.obj
 0002:00002be0       ??_C@_0BG@PADBLCHM@iostream?5stream?5error?$AA@ 000000018005abe0     libcpmtd:syserror.obj
 0002:00002bf8       ??_C@_06FHFOAHML@system?$AA@ 000000018005abf8     libcpmtd:syserror.obj
 0002:00002c08       ??_7_System_error_category@std@@6B@ 000000018005ac08     libcpmtd:syserror.obj
 0002:00002cb8       ??_C@_01KDCPPGHE@r?$AA@    000000018005acb8     libcpmtd:fiopen.obj
 0002:00002cbc       ??_C@_01NOFIACDB@w?$AA@    000000018005acbc     libcpmtd:fiopen.obj
 0002:00002cc0       ??_C@_01MCMALHOG@a?$AA@    000000018005acc0     libcpmtd:fiopen.obj
 0002:00002cc4       ??_C@_02JDPG@rb?$AA@       000000018005acc4     libcpmtd:fiopen.obj
 0002:00002cc8       ??_C@_02GMLFBBN@wb?$AA@    000000018005acc8     libcpmtd:fiopen.obj
 0002:00002ccc       ??_C@_02BOGAIONP@ab?$AA@   000000018005accc     libcpmtd:fiopen.obj
 0002:00002cd0       ??_C@_02CBLLGHLK@r?$CL?$AA@ 000000018005acd0     libcpmtd:fiopen.obj
 0002:00002cd4       ??_C@_02CHHAKFFB@w?$CL?$AA@ 000000018005acd4     libcpmtd:fiopen.obj
 0002:00002cd8       ??_C@_02DPNLHKJD@a?$CL?$AA@ 000000018005acd8     libcpmtd:fiopen.obj
 0002:00002cdc       ??_C@_03HMFOOINA@r?$CLb?$AA@ 000000018005acdc     libcpmtd:fiopen.obj
 0002:00002ce0       ??_C@_03ELIABIOC@w?$CLb?$AA@ 000000018005ace0     libcpmtd:fiopen.obj
 0002:00002ce4       ??_C@_03DOPCBAKB@a?$CLb?$AA@ 000000018005ace4     libcpmtd:fiopen.obj
 0002:00002ce8       ?valid@?1???$_Xfiopen@D@std@@YAPEAU_iobuf@@PEBDHH@Z@4QBHB 000000018005ace8     libcpmtd:fiopen.obj
 0002:00002d30       ??_7logic_error@std@@6B@   000000018005ad30     libcpmtd:xthrow.obj
 0002:00002d48       ??_7length_error@std@@6B@  000000018005ad48     libcpmtd:xthrow.obj
 0002:00002d60       ??_7out_of_range@std@@6B@  000000018005ad60     libcpmtd:xthrow.obj
 0002:00002d78       ??_7runtime_error@std@@6B@ 000000018005ad78     libcpmtd:xthrow.obj
 0002:00002d90       ??_C@_0P@GHFPNOJB@bad?5allocation?$AA@ 000000018005ad90     libcpmtd:xdebug.obj
 0002:00002dc8       ??_C@_0DI@PGGKKNLG@f?3?2dd?2vctools?2crt_bld?2self_64_am@ 000000018005adc8     libcpmtd:locale0.obj
 0002:00002e28       ??_C@_01NBENCBCI@?$CK?$AA@ 000000018005ae28     libcpmtd:locale0.obj
 0002:00002e38       ??_7_Locimp@locale@std@@6B@ 000000018005ae38     libcpmtd:locale0.obj
 0002:00002e48       ??_7facet@locale@std@@6B@  000000018005ae48     libcpmtd:locale0.obj
 0002:00002ea0       ??_C@_01GFHCPBMG@C?$AA@    000000018005aea0     libcpmtd:locale0.obj
 0002:00002ed0       ??_C@_0DF@DPEMGKOM@f?3?2dd?2vctools?2crt_bld?2self_64_am@ 000000018005aed0     libcpmtd:locale0.obj
 0002:00002f30       ??_C@_0DH@IHAKDLID@f?3?2dd?2vctools?2crt_bld?2self_64_am@ 000000018005af30     libcpmtd:_tolower.obj
 0002:00003008       __real@4024000000000000    000000018005b008     libcpmtd:xstod.obj
 0002:00003010       ??_C@_1O@GKDHFACN@?$AAp?$AAr?$AAi?$AAn?$AAt?$AAf?$AA?$AA@ 000000018005b010     LIBCMTD:printf.obj
 0002:00003020       ??_C@_1GK@NJMLMCDB@?$AAf?$AA?3?$AA?2?$AAd?$AAd?$AA?2?$AAv?$AAc?$AAt?$AAo?$AAo?$AAl?$AAs?$AA?2?$AAc?$AAr?$AAt?$AA_?$AAb?$AAl?$AAd?$AA?2?$AAs?$AAe?$AAl?$AAf?$AA_?$AA6?$AA4?$AA_?$AAa?$AAm@ 000000018005b020     LIBCMTD:printf.obj
 0002:00003090       ??_C@_1CC@MGIEJOME@?$AA?$CI?$AAf?$AAo?$AAr?$AAm?$AAa?$AAt?$AA?5?$AA?$CB?$AA?$DN?$AA?5?$AAN?$AAU?$AAL?$AAL?$AA?$CJ?$AA?$AA@ 000000018005b090     LIBCMTD:printf.obj
 0002:000030b8       ??_C@_0P@MIGLKIOC@CorExitProcess?$AA@ 000000018005b0b8     LIBCMTD:crt0dat.obj
 0002:000030c8       ??_C@_1BI@BGOHAHKC@?$AAm?$AAs?$AAc?$AAo?$AAr?$AAe?$AAe?$AA?4?$AAd?$AAl?$AAl?$AA?$AA@ 000000018005b0c8     LIBCMTD:crt0dat.obj
 0002:00003180       ??_C@_1GO@IECEPLPI@?$AAf?$AA?3?$AA?2?$AAd?$AAd?$AA?2?$AAv?$AAc?$AAt?$AAo?$AAo?$AAl?$AAs?$AA?2?$AAc?$AAr?$AAt?$AA_?$AAb?$AAl?$AAd?$AA?2?$AAs?$AAe?$AAl?$AAf?$AA_?$AA6?$AA4?$AA_?$AAa?$AAm@ 000000018005b180     LIBCMTD:dbgdel.obj
 0002:000031f0       ??_C@_1EO@LHDAJOCM@?$AA_?$AAB?$AAL?$AAO?$AAC?$AAK?$AA_?$AAT?$AAY?$AAP?$AAE?$AA_?$AAI?$AAS?$AA_?$AAV?$AAA?$AAL?$AAI?$AAD?$AA?$CI?$AAp?$AAH?$AAe?$AAa?$AAd?$AA?9?$AA?$DO?$AAn?$AAB?$AAl?$AAo@ 000000018005b1f0     LIBCMTD:dbgdel.obj
 0002:00003240       ??_C@_0DE@PMGNLEO@f?3?2dd?2vctools?2crt_bld?2self_64_am@ 000000018005b240     LIBCMTD:_file.obj
 0002:00003278       ??_C@_1O@KLNKIMAP@?$AAf?$AAw?$AAr?$AAi?$AAt?$AAe?$AA?$AA@ 000000018005b278     LIBCMTD:fwrite.obj
 0002:00003290       ??_C@_1GK@FANABGFH@?$AAf?$AA?3?$AA?2?$AAd?$AAd?$AA?2?$AAv?$AAc?$AAt?$AAo?$AAo?$AAl?$AAs?$AA?2?$AAc?$AAr?$AAt?$AA_?$AAb?$AAl?$AAd?$AA?2?$AAs?$AAe?$AAl?$AAf?$AA_?$AA6?$AA4?$AA_?$AAa?$AAm@ 000000018005b290     LIBCMTD:fwrite.obj
 0002:00003300       ??_C@_1CC@FADMNIL@?$AA?$CI?$AAs?$AAt?$AAr?$AAe?$AAa?$AAm?$AA?5?$AA?$CB?$AA?$DN?$AA?5?$AAN?$AAU?$AAL?$AAL?$AA?$CJ?$AA?$AA@ 000000018005b300     LIBCMTD:fwrite.obj
 0002:00003330       ??_C@_1LG@DCNDJCHK@?$AA?$CI?$AA?$CC?$AAI?$AAn?$AAc?$AAo?$AAn?$AAs?$AAi?$AAs?$AAt?$AAe?$AAn?$AAt?$AA?5?$AAS?$AAt?$AAr?$AAe?$AAa?$AAm?$AA?5?$AAC?$AAo?$AAu?$AAn?$AAt?$AA?4?$AA?5?$AAF?$AAl?$AAu@ 000000018005b330     LIBCMTD:fwrite.obj
 0002:000033e8       ??_C@_1DC@FHEPNAPF@?$AAn?$AAu?$AAm?$AA?5?$AA?$DM?$AA?$DN?$AA?5?$AA?$CI?$AAS?$AAI?$AAZ?$AAE?$AA_?$AAM?$AAA?$AAX?$AA?5?$AA?1?$AA?5?$AAs?$AAi?$AAz?$AAe?$AA?$CJ?$AA?$AA@ 000000018005b3e8     LIBCMTD:fwrite.obj
 0002:00003420       ??_C@_1CC@CGFEEBMC@?$AA?$CI?$AAb?$AAu?$AAf?$AAf?$AAe?$AAr?$AA?5?$AA?$CB?$AA?$DN?$AA?5?$AAN?$AAU?$AAL?$AAL?$AA?$CJ?$AA?$AA@ 000000018005b420     LIBCMTD:fwrite.obj
 0002:00003448       ??_C@_1BO@JGPKCBCE@?$AA_?$AAf?$AAw?$AAr?$AAi?$AAt?$AAe?$AA_?$AAn?$AAo?$AAl?$AAo?$AAc?$AAk?$AA?$AA@ 000000018005b448     LIBCMTD:fwrite.obj
 0002:00003470       ??_C@_1BAA@ODEGEDCK@?$AA?$CI?$AA?5?$AA?$CI?$AA_?$AAS?$AAt?$AAr?$AAe?$AAa?$AAm?$AA?9?$AA?$DO?$AA_?$AAf?$AAl?$AAa?$AAg?$AA?5?$AA?$CG?$AA?5?$AA_?$AAI?$AAO?$AAS?$AAT?$AAR?$AAG?$AA?$CJ?$AA?5?$AA?$HM?$AA?$HM?$AA?5@ 000000018005b470     LIBCMTD:fputc.obj
 0002:00003570       ??_C@_1M@OIJMPNCO@?$AAf?$AAp?$AAu?$AAt?$AAc?$AA?$AA@ 000000018005b570     LIBCMTD:fputc.obj
 0002:00003580       ??_C@_1GI@PAGAKHCM@?$AAf?$AA?3?$AA?2?$AAd?$AAd?$AA?2?$AAv?$AAc?$AAt?$AAo?$AAo?$AAl?$AAs?$AA?2?$AAc?$AAr?$AAt?$AA_?$AAb?$AAl?$AAd?$AA?2?$AAs?$AAe?$AAl?$AAf?$AA_?$AA6?$AA4?$AA_?$AAa?$AAm@ 000000018005b580     LIBCMTD:fputc.obj
 0002:000035e8       ??_C@_1BM@JMKHIAHP@?$AA?$CI?$AAs?$AAt?$AAr?$AA?5?$AA?$CB?$AA?$DN?$AA?5?$AAN?$AAU?$AAL?$AAL?$AA?$CJ?$AA?$AA@ 000000018005b5e8     LIBCMTD:fputc.obj
 0002:00003608       ??_C@_1O@JDPLECOK@?$AAu?$AAn?$AAg?$AAe?$AAt?$AAc?$AA?$AA@ 000000018005b608     LIBCMTD:ungetc.obj
 0002:00003620       ??_C@_1GK@IONNLBGK@?$AAf?$AA?3?$AA?2?$AAd?$AAd?$AA?2?$AAv?$AAc?$AAt?$AAo?$AAo?$AAl?$AAs?$AA?2?$AAc?$AAr?$AAt?$AA_?$AAb?$AAl?$AAd?$AA?2?$AAs?$AAe?$AAl?$AAf?$AA_?$AA6?$AA4?$AA_?$AAa?$AAm@ 000000018005b620     LIBCMTD:ungetc.obj
 0002:00003690       ??_C@_1BO@OLMLKKEA@?$AA_?$AAu?$AAn?$AAg?$AAe?$AAt?$AAc?$AA_?$AAn?$AAo?$AAl?$AAo?$AAc?$AAk?$AA?$AA@ 000000018005b690     LIBCMTD:ungetc.obj
 0002:000036b0       ??_C@_1HM@HAECPBKM@?$AAf?$AA?3?$AA?2?$AAd?$AAd?$AA?2?$AAv?$AAc?$AAt?$AAo?$AAo?$AAl?$AAs?$AA?2?$AAc?$AAr?$AAt?$AA_?$AAb?$AAl?$AAd?$AA?2?$AAs?$AAe?$AAl?$AAf?$AA_?$AA6?$AA4?$AA_?$AAa?$AAm@ 000000018005b6b0     LIBCMTD:ungetc.obj
 0002:00003730       ??_C@_1CK@DDKKOLAN@?$AAs?$AAi?$AAz?$AAe?$AAI?$AAn?$AAB?$AAy?$AAt?$AAe?$AAs?$AA?5?$AA?$DO?$AA?$DN?$AA?5?$AAc?$AAo?$AAu?$AAn?$AAt?$AA?$AA@ 000000018005b730     LIBCMTD:memcpy_s.obj
 0002:00003760       ??_C@_1BI@DCHLDCPP@?$AAs?$AAr?$AAc?$AA?5?$AA?$CB?$AA?$DN?$AA?5?$AAN?$AAU?$AAL?$AAL?$AA?$AA@ 000000018005b760     LIBCMTD:memcpy_s.obj
 0002:00003778       ??_C@_1BC@GKHDJMGB@?$AAm?$AAe?$AAm?$AAc?$AAp?$AAy?$AA_?$AAs?$AA?$AA@ 000000018005b778     LIBCMTD:memcpy_s.obj
 0002:00003790       ??_C@_1GO@EDMFKEMH@?$AAf?$AA?3?$AA?2?$AAd?$AAd?$AA?2?$AAv?$AAc?$AAt?$AAo?$AAo?$AAl?$AAs?$AA?2?$AAc?$AAr?$AAt?$AA_?$AAb?$AAl?$AAd?$AA?2?$AAs?$AAe?$AAl?$AAf?$AA_?$AA6?$AA4?$AA_?$AAa?$AAm@ 000000018005b790     LIBCMTD:memcpy_s.obj
 0002:00003800       ??_C@_1BI@GKKCBDMD@?$AAd?$AAs?$AAt?$AA?5?$AA?$CB?$AA?$DN?$AA?5?$AAN?$AAU?$AAL?$AAL?$AA?$AA@ 000000018005b800     LIBCMTD:memcpy_s.obj
 0002:00003818       ??_C@_1M@FBFFFGJE@?$AAf?$AAg?$AAe?$AAt?$AAc?$AA?$AA@ 000000018005b818     LIBCMTD:fgetc.obj
 0002:00003830       ??_C@_1GI@PPAHNMHM@?$AAf?$AA?3?$AA?2?$AAd?$AAd?$AA?2?$AAv?$AAc?$AAt?$AAo?$AAo?$AAl?$AAs?$AA?2?$AAc?$AAr?$AAt?$AA_?$AAb?$AAl?$AAd?$AA?2?$AAs?$AAe?$AAl?$AAf?$AA_?$AA6?$AA4?$AA_?$AAa?$AAm@ 000000018005b830     LIBCMTD:fgetc.obj
 0002:00003898       ??_C@_1BM@IMKAODOM@?$AA?$CI?$AAp?$AAo?$AAs?$AA?5?$AA?$CB?$AA?$DN?$AA?5?$AAN?$AAU?$AAL?$AAL?$AA?$CJ?$AA?$AA@ 000000018005b898     LIBCMTD:fgetpos.obj
 0002:000038b8       ??_C@_1BA@PDKPGILH@?$AAf?$AAg?$AAe?$AAt?$AAp?$AAo?$AAs?$AA?$AA@ 000000018005b8b8     LIBCMTD:fgetpos.obj
 0002:000038d0       ??_C@_1GM@KFEJPECI@?$AAf?$AA?3?$AA?2?$AAd?$AAd?$AA?2?$AAv?$AAc?$AAt?$AAo?$AAo?$AAl?$AAs?$AA?2?$AAc?$AAr?$AAt?$AA_?$AAb?$AAl?$AAd?$AA?2?$AAs?$AAe?$AAl?$AAf?$AA_?$AA6?$AA4?$AA_?$AAa?$AAm@ 000000018005b8d0     LIBCMTD:fgetpos.obj
 0002:00003940       ??_C@_1IO@PMHBOLJK@?$AA?$CI?$AA?$CI?$AAw?$AAh?$AAe?$AAn?$AAc?$AAe?$AA?5?$AA?$DN?$AA?$DN?$AA?5?$AAS?$AAE?$AAE?$AAK?$AA_?$AAS?$AAE?$AAT?$AA?$CJ?$AA?5?$AA?$HM?$AA?$HM?$AA?5?$AA?$CI?$AAw?$AAh?$AAe?$AAn?$AAc?$AAe@ 000000018005b940     LIBCMTD:fseeki64.obj
 0002:000039d0       ??_C@_1BE@LFNEFJFD@?$AA_?$AAf?$AAs?$AAe?$AAe?$AAk?$AAi?$AA6?$AA4?$AA?$AA@ 000000018005b9d0     LIBCMTD:fseeki64.obj
 0002:000039f0       ??_C@_1GO@MIODNAKM@?$AAf?$AA?3?$AA?2?$AAd?$AAd?$AA?2?$AAv?$AAc?$AAt?$AAo?$AAo?$AAl?$AAs?$AA?2?$AAc?$AAr?$AAt?$AA_?$AAb?$AAl?$AAd?$AA?2?$AAs?$AAe?$AAl?$AAf?$AA_?$AA6?$AA4?$AA_?$AAa?$AAm@ 000000018005b9f0     LIBCMTD:fseeki64.obj
 0002:00003a60       ??_C@_1BI@MFCLPIBM@?$AAs?$AAt?$AAr?$AA?5?$AA?$CB?$AA?$DN?$AA?5?$AAN?$AAU?$AAL?$AAL?$AA?$AA@ 000000018005ba60     LIBCMTD:fseeki64.obj
 0002:00003a78       ??_C@_1BA@IMLBNLMA@?$AAf?$AAs?$AAe?$AAt?$AAp?$AAo?$AAs?$AA?$AA@ 000000018005ba78     LIBCMTD:fsetpos.obj
 0002:00003a90       ??_C@_1GM@IAECHPDG@?$AAf?$AA?3?$AA?2?$AAd?$AAd?$AA?2?$AAv?$AAc?$AAt?$AAo?$AAo?$AAl?$AAs?$AA?2?$AAc?$AAr?$AAt?$AA_?$AAb?$AAl?$AAd?$AA?2?$AAs?$AAe?$AAl?$AAf?$AA_?$AA6?$AA4?$AA_?$AAa?$AAm@ 000000018005ba90     LIBCMTD:fsetpos.obj
 0002:00003b00       ??_C@_0DG@COBMDDCO@f?3?2dd?2vctools?2crt_bld?2self_64_am@ 000000018005bb00     LIBCMTD:setvbuf.obj
 0002:00003b40       ??_C@_1EG@IJNJIDNB@?$AA?$CI?$AA?$CI?$AA2?$AA?5?$AA?$DM?$AA?$DN?$AA?5?$AAs?$AAi?$AAz?$AAe?$AA?$CJ?$AA?5?$AA?$CG?$AA?$CG?$AA?5?$AA?$CI?$AAs?$AAi?$AAz?$AAe?$AA?5?$AA?$DM?$AA?$DN?$AA?5?$AAI?$AAN?$AAT?$AA_?$AAM?$AAA?$AAX@ 000000018005bb40     LIBCMTD:setvbuf.obj
 0002:00003b90       ??_C@_1HC@CBFEDAGG@?$AA?$CI?$AAt?$AAy?$AAp?$AAe?$AA?5?$AA?$DN?$AA?$DN?$AA?5?$AA_?$AAI?$AAO?$AAN?$AAB?$AAF?$AA?$CJ?$AA?5?$AA?$HM?$AA?$HM?$AA?5?$AA?$CI?$AAt?$AAy?$AAp?$AAe?$AA?5?$AA?$DN?$AA?$DN?$AA?5?$AA_?$AAI?$AAO@ 000000018005bb90     LIBCMTD:setvbuf.obj
 0002:00003c08       ??_C@_1BA@OGODIODK@?$AAs?$AAe?$AAt?$AAv?$AAb?$AAu?$AAf?$AA?$AA@ 000000018005bc08     LIBCMTD:setvbuf.obj
 0002:00003c20       ??_C@_1GM@CGAENCDO@?$AAf?$AA?3?$AA?2?$AAd?$AAd?$AA?2?$AAv?$AAc?$AAt?$AAo?$AAo?$AAl?$AAs?$AA?2?$AAc?$AAr?$AAt?$AA_?$AAb?$AAl?$AAd?$AA?2?$AAs?$AAe?$AAl?$AAf?$AA_?$AA6?$AA4?$AA_?$AAa?$AAm@ 000000018005bc20     LIBCMTD:setvbuf.obj
 0002:00003cd8       ??_7type_info@@6B@         000000018005bcd8     LIBCMTD:typinfo.obj
 0002:00003ce8       ??_7exception@std@@6B@     000000018005bce8     LIBCMTD:stdexcpt.obj
 0002:00003cf8       ??_C@_0BC@EOODALEL@Unknown?5exception?$AA@ 000000018005bcf8     LIBCMTD:stdexcpt.obj
 0002:00003d18       ??_7bad_cast@std@@6B@      000000018005bd18     LIBCMTD:stdexcpt.obj
 0002:00003d28       ??_C@_1O@EGMJNCOI@?$AAf?$AAc?$AAl?$AAo?$AAs?$AAe?$AA?$AA@ 000000018005bd28     LIBCMTD:fclose.obj
 0002:00003d40       ??_C@_1GK@MCAOLDDL@?$AAf?$AA?3?$AA?2?$AAd?$AAd?$AA?2?$AAv?$AAc?$AAt?$AAo?$AAo?$AAl?$AAs?$AA?2?$AAc?$AAr?$AAt?$AA_?$AAb?$AAl?$AAd?$AA?2?$AAs?$AAe?$AAl?$AAf?$AA_?$AA6?$AA4?$AA_?$AAa?$AAm@ 000000018005bd40     LIBCMTD:fclose.obj
 0002:00003db0       ??_C@_1BO@JINCABEC@?$AA_?$AAf?$AAc?$AAl?$AAo?$AAs?$AAe?$AA_?$AAn?$AAo?$AAl?$AAo?$AAc?$AAk?$AA?$AA@ 000000018005bdb0     LIBCMTD:fclose.obj
 0002:00003dd0       ??_C@_17LGKOMLJ@?$AA?4?$AA?4?$AA?4?$AA?$AA@ 000000018005bdd0     LIBCMTD:dbgrptw.obj
 0002:00003dd8       ??_C@_1CC@CGHMNGDG@?$AAA?$AAs?$AAs?$AAe?$AAr?$AAt?$AAi?$AAo?$AAn?$AA?5?$AAF?$AAa?$AAi?$AAl?$AAe?$AAd?$AA?$AA@ 000000018005bdd8     LIBCMTD:dbgrptw.obj
 0002:00003e00       ??_C@_1M@ILHOPKA@?$AAE?$AAr?$AAr?$AAo?$AAr?$AA?$AA@ 000000018005be00     LIBCMTD:dbgrptw.obj
 0002:00003e10       ??_C@_1BA@GLMCNLEM@?$AAW?$AAa?$AAr?$AAn?$AAi?$AAn?$AAg?$AA?$AA@ 000000018005be10     LIBCMTD:dbgrptw.obj
 0002:00003e40       ??_C@_1GK@OPBLBEGA@?$AAf?$AA?3?$AA?2?$AAd?$AAd?$AA?2?$AAv?$AAc?$AAt?$AAo?$AAo?$AAl?$AAs?$AA?2?$AAc?$AAr?$AAt?$AA_?$AAb?$AAl?$AAd?$AA?2?$AAs?$AAe?$AAl?$AAf?$AA_?$AA6?$AA4?$AA_?$AAa?$AAm@ 000000018005be40     LIBCMTD:dbgrptw.obj
 0002:00003eb0       ??_C@_1EG@PEOEAKBB@?$AAM?$AAi?$AAc?$AAr?$AAo?$AAs?$AAo?$AAf?$AAt?$AA?5?$AAV?$AAi?$AAs?$AAu?$AAa?$AAl?$AA?5?$AAC?$AA?$CL?$AA?$CL?$AA?5?$AAD?$AAe?$AAb?$AAu?$AAg?$AA?5?$AAL?$AAi?$AAb?$AAr?$AAa@ 000000018005beb0     LIBCMTD:dbgrptw.obj
 0002:00003f00       ??_C@_1JI@EACPGHID@?$AAw?$AAc?$AAs?$AAc?$AAp?$AAy?$AA_?$AAs?$AA?$CI?$AAs?$AAz?$AAO?$AAu?$AAt?$AAM?$AAe?$AAs?$AAs?$AAa?$AAg?$AAe?$AA?0?$AA?5?$AA4?$AA0?$AA9?$AA6?$AA?0?$AA?5?$AAL?$AA?$CC?$AA_@ 000000018005bf00     LIBCMTD:dbgrptw.obj
 0002:00003fa0       ??_C@_1FG@BBOLDHGF@?$AA_?$AAC?$AAr?$AAt?$AAD?$AAb?$AAg?$AAR?$AAe?$AAp?$AAo?$AAr?$AAt?$AA?3?$AA?5?$AAS?$AAt?$AAr?$AAi?$AAn?$AAg?$AA?5?$AAt?$AAo?$AAo?$AA?5?$AAl?$AAo?$AAn?$AAg?$AA?5?$AAo@ 000000018005bfa0     LIBCMTD:dbgrptw.obj
 0002:00003ff8       ??_C@_1BI@KALLJECN@?$AA?$CI?$AA?$CK?$AA_?$AAe?$AAr?$AAr?$AAn?$AAo?$AA?$CI?$AA?$CJ?$AA?$CJ?$AA?$AA@ 000000018005bff8     LIBCMTD:dbgrptw.obj
 0002:00004010       ??_C@_1KK@MEFMPOLM@?$AAD?$AAe?$AAb?$AAu?$AAg?$AA?5?$AA?$CF?$AAs?$AA?$CB?$AA?6?$AA?6?$AAP?$AAr?$AAo?$AAg?$AAr?$AAa?$AAm?$AA?3?$AA?5?$AA?$CF?$AAs?$AA?$CF?$AAs?$AA?$CF?$AAs?$AA?$CF?$AAs?$AA?$CF?$AAs?$AA?$CF?$AAs@ 000000018005c010     LIBCMTD:dbgrptw.obj
 0002:000040c0       ??_C@_1BE@CGCJKGHI@?$AA?6?$AAM?$AAo?$AAd?$AAu?$AAl?$AAe?$AA?3?$AA?5?$AA?$AA@ 000000018005c0c0     LIBCMTD:dbgrptw.obj
 0002:000040d8       ??_C@_1BA@LNHECFIM@?$AA?6?$AAF?$AAi?$AAl?$AAe?$AA?3?$AA?5?$AA?$AA@ 000000018005c0d8     LIBCMTD:dbgrptw.obj
 0002:000040e8       ??_C@_1BA@GLLGCPCK@?$AA?6?$AAL?$AAi?$AAn?$AAe?$AA?3?$AA?5?$AA?$AA@ 000000018005c0e8     LIBCMTD:dbgrptw.obj
 0002:000040f8       ??_C@_15IABLJNFO@?$AA?6?$AA?6?$AA?$AA@ 000000018005c0f8     LIBCMTD:dbgrptw.obj
 0002:00004100       ??_C@_1BK@PEDCIPMA@?$AAE?$AAx?$AAp?$AAr?$AAe?$AAs?$AAs?$AAi?$AAo?$AAn?$AA?3?$AA?5?$AA?$AA@ 000000018005c100     LIBCMTD:dbgrptw.obj
 0002:0000411c       ??_C@_11LOCGONAA@?$AA?$AA@ 000000018005c11c     LIBCMTD:dbgrptw.obj
 0002:00004120       ??_C@_1OG@PMPPFHAF@?$AA?6?$AA?6?$AAF?$AAo?$AAr?$AA?5?$AAi?$AAn?$AAf?$AAo?$AAr?$AAm?$AAa?$AAt?$AAi?$AAo?$AAn?$AA?5?$AAo?$AAn?$AA?5?$AAh?$AAo?$AAw?$AA?5?$AAy?$AAo?$AAu?$AAr?$AA?5?$AAp?$AAr@ 000000018005c120     LIBCMTD:dbgrptw.obj
 0002:00004210       ??_C@_1NO@LECLLHOL@?$AAm?$AAe?$AAm?$AAc?$AAp?$AAy?$AA_?$AAs?$AA?$CI?$AAs?$AAz?$AAS?$AAh?$AAo?$AAr?$AAt?$AAP?$AAr?$AAo?$AAg?$AAN?$AAa?$AAm?$AAe?$AA?0?$AA?5?$AAs?$AAi?$AAz?$AAe?$AAo?$AAf@ 000000018005c210     LIBCMTD:dbgrptw.obj
 0002:000042f0       ??_C@_1GI@DEDNNLCI@?$AAw?$AAc?$AAs?$AAc?$AAp?$AAy?$AA_?$AAs?$AA?$CI?$AAs?$AAz?$AAE?$AAx?$AAe?$AAN?$AAa?$AAm?$AAe?$AA?0?$AA?5?$AA2?$AA6?$AA0?$AA?0?$AA?5?$AAL?$AA?$CC?$AA?$DM?$AAp?$AAr?$AAo?$AAg@ 000000018005c2f0     LIBCMTD:dbgrptw.obj
 0002:00004358       ??_C@_1CI@PGJIFDEK@?$AA_?$AA_?$AAc?$AAr?$AAt?$AAM?$AAe?$AAs?$AAs?$AAa?$AAg?$AAe?$AAW?$AAi?$AAn?$AAd?$AAo?$AAw?$AAW?$AA?$AA@ 000000018005c358     LIBCMTD:dbgrptw.obj
 0002:00004380       ??_C@_1CO@EAEJAADC@?$AA?$DM?$AAp?$AAr?$AAo?$AAg?$AAr?$AAa?$AAm?$AA?5?$AAn?$AAa?$AAm?$AAe?$AA?5?$AAu?$AAn?$AAk?$AAn?$AAo?$AAw?$AAn?$AA?$DO?$AA?$AA@ 000000018005c380     LIBCMTD:dbgrptw.obj
 0002:000043b0       ??_C@_06PJIGMIJB@Client?$AA@ 000000018005c3b0     LIBCMTD:dbgheap.obj
 0002:000043b8       ??_C@_06KMEJCCGM@Ignore?$AA@ 000000018005c3b8     LIBCMTD:dbgheap.obj
 0002:000043c0       ??_C@_03OGPFLFLO@CRT?$AA@  000000018005c3c0     LIBCMTD:dbgheap.obj
 0002:000043c4       ??_C@_06EFAGIKOH@Normal?$AA@ 000000018005c3c4     LIBCMTD:dbgheap.obj
 0002:000043cc       ??_C@_04HJMOFLDF@Free?$AA@ 000000018005c3cc     LIBCMTD:dbgheap.obj
 0002:00004400       ??_C@_0DC@JEMAGEKG@Error?3?5memory?5allocation?3?5bad?5me@ 000000018005c400     LIBCMTD:dbgheap.obj
 0002:00004438       ??_C@_0CF@BICKFLAF@Invalid?5allocation?5size?3?5?$CFIu?5byt@ 000000018005c438     LIBCMTD:dbgheap.obj
 0002:00004460       ??_C@_02DKCKIIND@?$CFs?$AA@ 000000018005c460     LIBCMTD:dbgheap.obj
 0002:00004468       ??_C@_0CB@CCLOLAHO@Client?5hook?5allocation?5failure?4?6@ 000000018005c468     LIBCMTD:dbgheap.obj
 0002:00004490       ??_C@_0DF@BBEGIFEK@Client?5hook?5allocation?5failure?5a@ 000000018005c490     LIBCMTD:dbgheap.obj
 0002:000044d0       ??_C@_1GM@EEGHMGNN@?$AAf?$AA?3?$AA?2?$AAd?$AAd?$AA?2?$AAv?$AAc?$AAt?$AAo?$AAo?$AAl?$AAs?$AA?2?$AAc?$AAr?$AAt?$AA_?$AAb?$AAl?$AAd?$AA?2?$AAs?$AAe?$AAl?$AAf?$AA_?$AA6?$AA4?$AA_?$AAa?$AAm@ 000000018005c4d0     LIBCMTD:dbgheap.obj
 0002:00004540       ??_C@_1CE@LJFEPPMP@?$AA_?$AAC?$AAr?$AAt?$AAC?$AAh?$AAe?$AAc?$AAk?$AAM?$AAe?$AAm?$AAo?$AAr?$AAy?$AA?$CI?$AA?$CJ?$AA?$AA@ 000000018005c540     LIBCMTD:dbgheap.obj
 0002:00004568       ??_C@_1DE@KOOKLFBB@?$AA_?$AAp?$AAF?$AAi?$AAr?$AAs?$AAt?$AAB?$AAl?$AAo?$AAc?$AAk?$AA?5?$AA?$DN?$AA?$DN?$AA?5?$AAp?$AAO?$AAl?$AAd?$AAB?$AAl?$AAo?$AAc?$AAk?$AA?$AA@ 000000018005c568     LIBCMTD:dbgheap.obj
 0002:000045a0       ??_C@_1DC@GEFKNOOL@?$AA_?$AAp?$AAL?$AAa?$AAs?$AAt?$AAB?$AAl?$AAo?$AAc?$AAk?$AA?5?$AA?$DN?$AA?$DN?$AA?5?$AAp?$AAO?$AAl?$AAd?$AAB?$AAl?$AAo?$AAc?$AAk?$AA?$AA@ 000000018005c5a0     LIBCMTD:dbgheap.obj
 0002:000045e0       ??_C@_1GE@PCKLOLAO@?$AAf?$AAR?$AAe?$AAa?$AAl?$AAl?$AAo?$AAc?$AA?5?$AA?$HM?$AA?$HM?$AA?5?$AA?$CI?$AA?$CB?$AAf?$AAR?$AAe?$AAa?$AAl?$AAl?$AAo?$AAc?$AA?5?$AA?$CG?$AA?$CG?$AA?5?$AAp?$AAN?$AAe?$AAw?$AAB?$AAl@ 000000018005c5e0     LIBCMTD:dbgheap.obj
 0002:00004648       ??_C@_0DA@HFBKENN@Error?3?5possible?5heap?5corruption?5@ 000000018005c648     LIBCMTD:dbgheap.obj
 0002:00004680       ??_C@_1IK@DCPKDGNH@?$AAp?$AAO?$AAl?$AAd?$AAB?$AAl?$AAo?$AAc?$AAk?$AA?9?$AA?$DO?$AAn?$AAL?$AAi?$AAn?$AAe?$AA?5?$AA?$DN?$AA?$DN?$AA?5?$AAI?$AAG?$AAN?$AAO?$AAR?$AAE?$AA_?$AAL?$AAI?$AAN?$AAE?$AA?5@ 000000018005c680     LIBCMTD:dbgheap.obj
 0002:00004710       ??_C@_1EE@GFOPCECE@?$AA_?$AAC?$AAr?$AAt?$AAI?$AAs?$AAV?$AAa?$AAl?$AAi?$AAd?$AAH?$AAe?$AAa?$AAp?$AAP?$AAo?$AAi?$AAn?$AAt?$AAe?$AAr?$AA?$CI?$AAp?$AAU?$AAs?$AAe?$AAr?$AAD?$AAa?$AAt?$AAa@ 000000018005c710     LIBCMTD:dbgheap.obj
 0002:00004760       ??_C@_0EM@LGFLMAGJ@The?5Block?5at?50x?$CFp?5was?5allocated?5@ 000000018005c760     LIBCMTD:dbgheap.obj
 0002:000047b0       ??_C@_0FA@EFEIGJKG@Error?3?5memory?5allocation?3?5bad?5me@ 000000018005c7b0     LIBCMTD:dbgheap.obj
 0002:00004800       ??_C@_0ED@GPCPBAGP@Invalid?5allocation?5size?3?5?$CFIu?5byt@ 000000018005c800     LIBCMTD:dbgheap.obj
 0002:00004848       ??_C@_0CE@DOFMDOL@Client?5hook?5re?9allocation?5failur@ 000000018005c848     LIBCMTD:dbgheap.obj
 0002:00004870       ??_C@_0DI@KKJPDPGM@Client?5hook?5re?9allocation?5failur@ 000000018005c870     LIBCMTD:dbgheap.obj
 0002:000048a8       ??_C@_1CE@CJACEFBA@?$AAp?$AAU?$AAs?$AAe?$AAr?$AAD?$AAa?$AAt?$AAa?$AA?5?$AA?$CB?$AA?$DN?$AA?5?$AAN?$AAU?$AAL?$AAL?$AA?$AA@ 000000018005c8a8     LIBCMTD:dbgheap.obj
 0002:000048d0       ??_C@_1CM@MMAADDMD@?$AA_?$AAp?$AAF?$AAi?$AAr?$AAs?$AAt?$AAB?$AAl?$AAo?$AAc?$AAk?$AA?5?$AA?$DN?$AA?$DN?$AA?5?$AAp?$AAH?$AAe?$AAa?$AAd?$AA?$AA@ 000000018005c8d0     LIBCMTD:dbgheap.obj
 0002:00004900       ??_C@_1CK@DMAGEMBG@?$AA_?$AAp?$AAL?$AAa?$AAs?$AAt?$AAB?$AAl?$AAo?$AAc?$AAk?$AA?5?$AA?$DN?$AA?$DN?$AA?5?$AAp?$AAH?$AAe?$AAa?$AAd?$AA?$AA@ 000000018005c900     LIBCMTD:dbgheap.obj
 0002:00004930       ??_C@_1DM@ODCJIDCP@?$AAp?$AAH?$AAe?$AAa?$AAd?$AA?9?$AA?$DO?$AAn?$AAB?$AAl?$AAo?$AAc?$AAk?$AAU?$AAs?$AAe?$AA?5?$AA?$DN?$AA?$DN?$AA?5?$AAn?$AAB?$AAl?$AAo?$AAc?$AAk?$AAU?$AAs?$AAe?$AA?$AA@ 000000018005c930     LIBCMTD:dbgheap.obj
 0002:00004970       ??_C@_1HK@HPCBMDFG@?$AAp?$AAH?$AAe?$AAa?$AAd?$AA?9?$AA?$DO?$AAn?$AAL?$AAi?$AAn?$AAe?$AA?5?$AA?$DN?$AA?$DN?$AA?5?$AAI?$AAG?$AAN?$AAO?$AAR?$AAE?$AA_?$AAL?$AAI?$AAN?$AAE?$AA?5?$AA?$CG?$AA?$CG?$AA?5?$AAp@ 000000018005c970     LIBCMTD:dbgheap.obj
 0002:000049f0       ??_C@_0IG@LEMBDCJK@HEAP?5CORRUPTION?5DETECTED?3?5after?5@ 000000018005c9f0     LIBCMTD:dbgheap.obj
 0002:00004a80       ??_C@_0KE@MBMNHHHN@HEAP?5CORRUPTION?5DETECTED?3?5after?5@ 000000018005ca80     LIBCMTD:dbgheap.obj
 0002:00004b30       ??_C@_0IK@PJCGLBOB@HEAP?5CORRUPTION?5DETECTED?3?5before@ 000000018005cb30     LIBCMTD:dbgheap.obj
 0002:00004bc0       ??_C@_0KI@JGFOHMEB@HEAP?5CORRUPTION?5DETECTED?3?5before@ 000000018005cbc0     LIBCMTD:dbgheap.obj
 0002:00004c68       ??_C@_0BL@KEIPLFAC@Client?5hook?5free?5failure?4?6?$AA@ 000000018005cc68     LIBCMTD:dbgheap.obj
 0002:00004c90       ??_C@_0EJ@HEIBCIMJ@The?5Block?5at?50x?$CFp?5was?5allocated?5@ 000000018005cc90     LIBCMTD:dbgheap.obj
 0002:00004ce0       ??_C@_1BG@MBKOGDLD@?$AA_?$AAm?$AAs?$AAi?$AAz?$AAe?$AA_?$AAd?$AAb?$AAg?$AA?$AA@ 000000018005cce0     LIBCMTD:dbgheap.obj
 0002:00004cf8       ??_C@_0CI@JMLBEDHJ@?$CFhs?5located?5at?50x?$CFp?5is?5?$CFIu?5bytes@ 000000018005ccf8     LIBCMTD:dbgheap.obj
 0002:00004d20       ??_C@_0EG@DGJMPDBH@?$CFhs?5located?5at?50x?$CFp?5is?5?$CFIu?5bytes@ 000000018005cd20     LIBCMTD:dbgheap.obj
 0002:00004d70       ??_C@_0IC@BBJIOOJH@HEAP?5CORRUPTION?5DETECTED?3?5on?5top@ 000000018005cd70     LIBCMTD:dbgheap.obj
 0002:00004e00       ??_C@_0KA@IHNJJKPL@HEAP?5CORRUPTION?5DETECTED?3?5on?5top@ 000000018005ce00     LIBCMTD:dbgheap.obj
 0002:00004ea0       ??_C@_07OHKEFPKJ@DAMAGED?$AA@ 000000018005cea0     LIBCMTD:dbgheap.obj
 0002:00004ea8       ??_C@_0CL@HNNNMKMJ@_heapchk?5fails?5with?5unknown?5retu@ 000000018005cea8     LIBCMTD:dbgheap.obj
 0002:00004ed8       ??_C@_0CC@MFFCHFHO@_heapchk?5fails?5with?5_HEAPBADPTR?4@ 000000018005ced8     LIBCMTD:dbgheap.obj
 0002:00004f00       ??_C@_0CC@MJGLGBDG@_heapchk?5fails?5with?5_HEAPBADEND?4@ 000000018005cf00     LIBCMTD:dbgheap.obj
 0002:00004f28       ??_C@_0CD@CPKEAPBD@_heapchk?5fails?5with?5_HEAPBADNODE@ 000000018005cf28     LIBCMTD:dbgheap.obj
 0002:00004f50       ??_C@_0CE@MKKHMBMK@_heapchk?5fails?5with?5_HEAPBADBEGI@ 000000018005cf50     LIBCMTD:dbgheap.obj
 0002:00004f78       ??_C@_1BO@GJFDNMNF@?$AA_?$AAC?$AAr?$AAt?$AAS?$AAe?$AAt?$AAD?$AAb?$AAg?$AAF?$AAl?$AAa?$AAg?$AA?$AA@ 000000018005cf78     LIBCMTD:dbgheap.obj
 0002:00004fa0       ??_C@_1BHO@NNANJNF@?$AA?$CI?$AAf?$AAN?$AAe?$AAw?$AAB?$AAi?$AAt?$AAs?$AA?$DN?$AA?$DN?$AA_?$AAC?$AAR?$AAT?$AAD?$AAB?$AAG?$AA_?$AAR?$AAE?$AAP?$AAO?$AAR?$AAT?$AA_?$AAF?$AAL?$AAA?$AAG?$AA?$CJ?$AA?5@ 000000018005cfa0     LIBCMTD:dbgheap.obj
 0002:00005120       ??_C@_0CB@EAAIGELO@Bad?5memory?5block?5found?5at?50x?$CFp?4?6@ 000000018005d120     LIBCMTD:dbgheap.obj
 0002:00005148       ??_C@_0DP@LEFMFBOD@Bad?5memory?5block?5found?5at?50x?$CFp?4?6@ 000000018005d148     LIBCMTD:dbgheap.obj
 0002:00005188       ??_C@_1CE@NJJKELF@?$AA_?$AAC?$AAr?$AAt?$AAM?$AAe?$AAm?$AAC?$AAh?$AAe?$AAc?$AAk?$AAp?$AAo?$AAi?$AAn?$AAt?$AA?$AA@ 000000018005d188     LIBCMTD:dbgheap.obj
 0002:000051b0       ??_C@_1BM@MIMANDHC@?$AAs?$AAt?$AAa?$AAt?$AAe?$AA?5?$AA?$CB?$AA?$DN?$AA?5?$AAN?$AAU?$AAL?$AAL?$AA?$AA@ 000000018005d1b0     LIBCMTD:dbgheap.obj
 0002:000051d0       ??_C@_0BH@GFGKJDCO@Object?5dump?5complete?4?6?$AA@ 000000018005d1d0     LIBCMTD:dbgheap.obj
 0002:000051e8       ??_C@_0DA@MDLBNIBM@crt?5block?5at?50x?$CFp?0?5subtype?5?$CFx?0?5?$CF@ 000000018005d1e8     LIBCMTD:dbgheap.obj
 0002:00005218       ??_C@_0CH@FAGDDGPN@normal?5block?5at?50x?$CFp?0?5?$CFIu?5bytes?5@ 000000018005d218     LIBCMTD:dbgheap.obj
 0002:00005240       ??_C@_0DD@GHNAAKBB@client?5block?5at?50x?$CFp?0?5subtype?5?$CFx@ 000000018005d240     LIBCMTD:dbgheap.obj
 0002:00005274       ??_C@_06PKLGBFGM@?$HL?$CFld?$HN?5?$AA@ 000000018005d274     LIBCMTD:dbgheap.obj
 0002:00005280       ??_C@_0L@JMEFFCCJ@?$CFhs?$CI?$CFd?$CJ?5?3?5?$AA@ 000000018005d280     LIBCMTD:dbgheap.obj
 0002:00005290       ??_C@_0BE@OIEFNFL@?$CDFile?5Error?$CD?$CI?$CFd?$CJ?5?3?5?$AA@ 000000018005d290     LIBCMTD:dbgheap.obj
 0002:000052a8       ??_C@_0BE@KCIPKCIA@Dumping?5objects?5?9?$DO?6?$AA@ 000000018005d2a8     LIBCMTD:dbgheap.obj
 0002:000052c0       ??_C@_0BA@HJBKCELP@?5Data?3?5?$DM?$CFs?$DO?5?$CFs?6?$AA@ 000000018005d2c0     LIBCMTD:dbgheap.obj
 0002:000052d0       ??_C@_1CG@LPFIACGM@?$AA_?$AAp?$AAr?$AAi?$AAn?$AAt?$AAM?$AAe?$AAm?$AAB?$AAl?$AAo?$AAc?$AAk?$AAD?$AAa?$AAt?$AAa?$AA?$AA@ 000000018005d2d0     LIBCMTD:dbgheap.obj
 0002:000052f8       ??_C@_05MKKEDADM@?$CF?42X?5?$AA@ 000000018005d2f8     LIBCMTD:dbgheap.obj
 0002:00005300       ??_C@_0BI@JBFPOEJA@Detected?5memory?5leaks?$CB?6?$AA@ 000000018005d300     LIBCMTD:dbgheap.obj
 0002:00005318       _FPinit                    000000018005d318     LIBCMTD:_fpinit_.obj
 0002:00005320       ??_C@_1BE@NMKKBGPA@?$AAm?$AAe?$AAm?$AAm?$AAo?$AAv?$AAe?$AA_?$AAs?$AA?$AA@ 000000018005d320     LIBCMTD:memmove_s.obj
 0002:00005340       ??_C@_1HA@INHNAABF@?$AAf?$AA?3?$AA?2?$AAd?$AAd?$AA?2?$AAv?$AAc?$AAt?$AAo?$AAo?$AAl?$AAs?$AA?2?$AAc?$AAr?$AAt?$AA_?$AAb?$AAl?$AAd?$AA?2?$AAs?$AAe?$AAl?$AAf?$AA_?$AA6?$AA4?$AA_?$AAa?$AAm@ 000000018005d340     LIBCMTD:memmove_s.obj
 0002:000053b0       __real@3ff0000000000000    000000018005d3b0     LIBCMTD:_ldexp_.obj
 0002:000053b8       ??_C@_0DF@GEIKHPOC@f?3?2dd?2vctools?2crt_bld?2self_64_am@ 000000018005d3b8     LIBCMTD:onexit.obj
 0002:000053f0       ??_C@_13LBAGMAIH@?$AA?6?$AA?$AA@ 000000018005d3f0     LIBCMTD:wassert.obj
 0002:00005400       ??_C@_1EK@MBDPDCGA@?$AAM?$AAi?$AAc?$AAr?$AAo?$AAs?$AAo?$AAf?$AAt?$AA?5?$AAV?$AAi?$AAs?$AAu?$AAa?$AAl?$AA?5?$AAC?$AA?$CL?$AA?$CL?$AA?5?$AAR?$AAu?$AAn?$AAt?$AAi?$AAm?$AAe?$AA?5?$AAL?$AAi?$AAb@ 000000018005d400     LIBCMTD:wassert.obj
 0002:00005450       ??_C@_1LO@HBAMOOPN@?$AAw?$AAc?$AAs?$AAc?$AAa?$AAt?$AA_?$AAs?$AA?$CI?$AAa?$AAs?$AAs?$AAe?$AAr?$AAt?$AAb?$AAu?$AAf?$AA?0?$AA?5?$AA?$CI?$AA6?$AA0?$AA?5?$AA?$CK?$AA?5?$AA9?$AA?$CJ?$AA?0?$AA?5?$AAL?$AA?$CC@ 000000018005d450     LIBCMTD:wassert.obj
 0002:00005510       ??_C@_1HK@POCJMFGK@?$AA?$CI?$AAP?$AAr?$AAe?$AAs?$AAs?$AA?5?$AAR?$AAe?$AAt?$AAr?$AAy?$AA?5?$AAt?$AAo?$AA?5?$AAd?$AAe?$AAb?$AAu?$AAg?$AA?5?$AAt?$AAh?$AAe?$AA?5?$AAa?$AAp?$AAp?$AAl?$AAi?$AAc@ 000000018005d510     LIBCMTD:wassert.obj
 0002:00005590       ??_C@_1FG@GMPCGFKH@?$AAw?$AAc?$AAs?$AAc?$AAa?$AAt?$AA_?$AAs?$AA?$CI?$AAa?$AAs?$AAs?$AAe?$AAr?$AAt?$AAb?$AAu?$AAf?$AA?0?$AA?5?$AA?$CI?$AA6?$AA0?$AA?5?$AA?$CK?$AA?5?$AA9?$AA?$CJ?$AA?0?$AA?5?$AAd?$AAb@ 000000018005d590     LIBCMTD:wassert.obj
 0002:000055f0       ??_C@_1BCO@FMFFDPPF@?$AAw?$AAc?$AAs?$AAc?$AAa?$AAt?$AA_?$AAs?$AA?$CI?$AAa?$AAs?$AAs?$AAe?$AAr?$AAt?$AAb?$AAu?$AAf?$AA?0?$AA?5?$AA?$CI?$AA6?$AA0?$AA?5?$AA?$CK?$AA?5?$AA9?$AA?$CJ?$AA?0?$AA?5?$AAL?$AA?$CC@ 000000018005d5f0     LIBCMTD:wassert.obj
 0002:00005720       ??_C@_1OA@EGMLFBHJ@?$AAF?$AAo?$AAr?$AA?5?$AAi?$AAn?$AAf?$AAo?$AAr?$AAm?$AAa?$AAt?$AAi?$AAo?$AAn?$AA?5?$AAo?$AAn?$AA?5?$AAh?$AAo?$AAw?$AA?5?$AAy?$AAo?$AAu?$AAr?$AA?5?$AAp?$AAr?$AAo?$AAg@ 000000018005d720     LIBCMTD:wassert.obj
 0002:00005800       ??_C@_1EM@MBEKCGIC@?$AAw?$AAc?$AAs?$AAc?$AAa?$AAt?$AA_?$AAs?$AA?$CI?$AA?5?$AAa?$AAs?$AAs?$AAe?$AAr?$AAt?$AAb?$AAu?$AAf?$AA?0?$AA?5?$AA?$CI?$AA6?$AA0?$AA?5?$AA?$CK?$AA?5?$AA9?$AA?$CJ?$AA?0?$AA?5?$AAe@ 000000018005d800     LIBCMTD:wassert.obj
 0002:00005850       ??_C@_1CHM@CEIMNDLH@?$AAw?$AAc?$AAs?$AAn?$AAc?$AAa?$AAt?$AA_?$AAs?$AA?$CI?$AA?5?$AAa?$AAs?$AAs?$AAe?$AAr?$AAt?$AAb?$AAu?$AAf?$AA?0?$AA?5?$AA?$CI?$AA6?$AA0?$AA?5?$AA?$CK?$AA?5?$AA9?$AA?$CJ?$AA?0?$AA?5@ 000000018005d850     LIBCMTD:wassert.obj
 0002:00005ad0       ??_C@_1GC@HOBBPFHJ@?$AAw?$AAc?$AAs?$AAc?$AAa?$AAt?$AA_?$AAs?$AA?$CI?$AA?5?$AAa?$AAs?$AAs?$AAe?$AAr?$AAt?$AAb?$AAu?$AAf?$AA?0?$AA?5?$AA?$CI?$AA6?$AA0?$AA?5?$AA?$CK?$AA?5?$AA9?$AA?$CJ?$AA?0?$AA?5?$AAL@ 000000018005dad0     LIBCMTD:wassert.obj
 0002:00005b40       ??_C@_1KG@CFEIMPNH@?$AA_?$AAi?$AAt?$AAo?$AAw?$AA_?$AAs?$AA?$CI?$AA?5?$AAl?$AAi?$AAn?$AAe?$AAn?$AAo?$AA?0?$AA?5?$AAa?$AAs?$AAs?$AAe?$AAr?$AAt?$AAb?$AAu?$AAf?$AA?5?$AA?$CL?$AA?5?$AAw?$AAc?$AAs@ 000000018005db40     LIBCMTD:wassert.obj
 0002:00005bf0       ??_C@_1FG@NHDGJLMI@?$AAw?$AAc?$AAs?$AAc?$AAa?$AAt?$AA_?$AAs?$AA?$CI?$AA?5?$AAa?$AAs?$AAs?$AAe?$AAr?$AAt?$AAb?$AAu?$AAf?$AA?0?$AA?5?$AA?$CI?$AA6?$AA0?$AA?5?$AA?$CK?$AA?5?$AA9?$AA?$CJ?$AA?0?$AA?5?$AAL@ 000000018005dbf0     LIBCMTD:wassert.obj
 0002:00005c48       ??_C@_1O@KCAFKHJE@?$AAL?$AAi?$AAn?$AAe?$AA?3?$AA?5?$AA?$AA@ 000000018005dc48     LIBCMTD:wassert.obj
 0002:00005c60       ??_C@_1FE@IIFBBPFI@?$AAw?$AAc?$AAs?$AAc?$AAa?$AAt?$AA_?$AAs?$AA?$CI?$AA?5?$AAa?$AAs?$AAs?$AAe?$AAr?$AAt?$AAb?$AAu?$AAf?$AA?0?$AA?5?$AA?$CI?$AA6?$AA0?$AA?5?$AA?$CK?$AA?5?$AA9?$AA?$CJ?$AA?0?$AA?5?$AAf@ 000000018005dc60     LIBCMTD:wassert.obj
 0002:00005cc0       ??_C@_1IC@CFFJBMAD@?$AAw?$AAc?$AAs?$AAc?$AAa?$AAt?$AA_?$AAs?$AA?$CI?$AA?5?$AAa?$AAs?$AAs?$AAe?$AAr?$AAt?$AAb?$AAu?$AAf?$AA?0?$AA?5?$AA?$CI?$AA6?$AA0?$AA?5?$AA?$CK?$AA?5?$AA9?$AA?$CJ?$AA?0?$AA?5?$AAp@ 000000018005dcc0     LIBCMTD:wassert.obj
 0002:00005d50       ??_C@_1HG@OJJMBIKO@?$AAw?$AAc?$AAs?$AAn?$AAc?$AAa?$AAt?$AA_?$AAs?$AA?$CI?$AA?5?$AAa?$AAs?$AAs?$AAe?$AAr?$AAt?$AAb?$AAu?$AAf?$AA?0?$AA?5?$AA?$CI?$AA6?$AA0?$AA?5?$AA?$CK?$AA?5?$AA9?$AA?$CJ?$AA?0?$AA?5@ 000000018005dd50     LIBCMTD:wassert.obj
 0002:00005dd0       ??_C@_1GO@BIHLMMND@?$AAw?$AAc?$AAs?$AAn?$AAc?$AAa?$AAt?$AA_?$AAs?$AA?$CI?$AA?5?$AAa?$AAs?$AAs?$AAe?$AAr?$AAt?$AAb?$AAu?$AAf?$AA?0?$AA?5?$AA?$CI?$AA6?$AA0?$AA?5?$AA?$CK?$AA?5?$AA9?$AA?$CJ?$AA?0?$AA?5@ 000000018005ddd0     LIBCMTD:wassert.obj
 0002:00005e40       ??_C@_1FO@IJLLDBEB@?$AAw?$AAc?$AAs?$AAc?$AAa?$AAt?$AA_?$AAs?$AA?$CI?$AA?5?$AAa?$AAs?$AAs?$AAe?$AAr?$AAt?$AAb?$AAu?$AAf?$AA?0?$AA?5?$AA?$CI?$AA6?$AA0?$AA?5?$AA?$CK?$AA?5?$AA9?$AA?$CJ?$AA?0?$AA?5?$AAp@ 000000018005de40     LIBCMTD:wassert.obj
 0002:00005ea0       ??_C@_1FG@CLEECKIJ@?$AAw?$AAc?$AAs?$AAc?$AAa?$AAt?$AA_?$AAs?$AA?$CI?$AA?5?$AAa?$AAs?$AAs?$AAe?$AAr?$AAt?$AAb?$AAu?$AAf?$AA?0?$AA?5?$AA?$CI?$AA6?$AA0?$AA?5?$AA?$CK?$AA?5?$AA9?$AA?$CJ?$AA?0?$AA?5?$AAd@ 000000018005dea0     LIBCMTD:wassert.obj
 0002:00005f00       ??_C@_1GG@PMHOPJKA@?$AAw?$AAc?$AAs?$AAn?$AAc?$AAa?$AAt?$AA_?$AAs?$AA?$CI?$AA?5?$AAa?$AAs?$AAs?$AAe?$AAr?$AAt?$AAb?$AAu?$AAf?$AA?0?$AA?5?$AA?$CI?$AA6?$AA0?$AA?5?$AA?$CK?$AA?5?$AA9?$AA?$CJ?$AA?0?$AA?5@ 000000018005df00     LIBCMTD:wassert.obj
 0002:00005f70       ??_C@_1FG@HIDBOJF@?$AAw?$AAc?$AAs?$AAc?$AAa?$AAt?$AA_?$AAs?$AA?$CI?$AA?5?$AAa?$AAs?$AAs?$AAe?$AAr?$AAt?$AAb?$AAu?$AAf?$AA?0?$AA?5?$AA?$CI?$AA6?$AA0?$AA?5?$AA?$CK?$AA?5?$AA9?$AA?$CJ?$AA?0?$AA?5?$AAL@ 000000018005df70     LIBCMTD:wassert.obj
 0002:00005fc8       ??_C@_1O@HEMHKNDC@?$AAF?$AAi?$AAl?$AAe?$AA?3?$AA?5?$AA?$AA@ 000000018005dfc8     LIBCMTD:wassert.obj
 0002:00005fe0       ??_C@_1FC@FFKGGIKO@?$AAw?$AAc?$AAs?$AAc?$AAa?$AAt?$AA_?$AAs?$AA?$CI?$AA?5?$AAa?$AAs?$AAs?$AAe?$AAr?$AAt?$AAb?$AAu?$AAf?$AA?0?$AA?5?$AA?$CI?$AA6?$AA0?$AA?5?$AA?$CK?$AA?5?$AA9?$AA?$CJ?$AA?0?$AA?5?$AAn@ 000000018005dfe0     LIBCMTD:wassert.obj
 0002:00006040       ??_C@_1EK@BDNABPEK@?$AAw?$AAc?$AAs?$AAc?$AAa?$AAt?$AA_?$AAs?$AA?$CI?$AA?5?$AAa?$AAs?$AAs?$AAe?$AAr?$AAt?$AAb?$AAu?$AAf?$AA?0?$AA?5?$AA?$CI?$AA6?$AA0?$AA?5?$AA?$CK?$AA?5?$AA9?$AA?$CJ?$AA?0?$AA?5?$AAp@ 000000018005e040     LIBCMTD:wassert.obj
 0002:00006090       ??_C@_1HK@JKBDGMGN@?$AAw?$AAc?$AAs?$AAn?$AAc?$AAp?$AAy?$AA_?$AAs?$AA?$CI?$AA?5?$AAp?$AAc?$AAh?$AA?0?$AA?5?$AA?$CI?$AA2?$AA6?$AA0?$AA?5?$AA?$CL?$AA?5?$AA1?$AA?$CJ?$AA?5?$AA?9?$AA?5?$AA?$CI?$AAp?$AAc?$AAh@ 000000018005e090     LIBCMTD:wassert.obj
 0002:00006110       ??_C@_1HA@EPFCONEE@?$AAw?$AAc?$AAs?$AAc?$AAp?$AAy?$AA_?$AAs?$AA?$CI?$AA?5?$AAp?$AAr?$AAo?$AAg?$AAn?$AAa?$AAm?$AAe?$AA?0?$AA?5?$AA2?$AA6?$AA0?$AA?5?$AA?$CL?$AA?5?$AA1?$AA?0?$AA?5?$AAL?$AA?$CC?$AA?$DM@ 000000018005e110     LIBCMTD:wassert.obj
 0002:00006180       ??_C@_1FM@LKICECBD@?$AAw?$AAc?$AAs?$AAc?$AAa?$AAt?$AA_?$AAs?$AA?$CI?$AA?5?$AAa?$AAs?$AAs?$AAe?$AAr?$AAt?$AAb?$AAu?$AAf?$AA?0?$AA?5?$AA?$CI?$AA6?$AA0?$AA?5?$AA?$CK?$AA?5?$AA9?$AA?$CJ?$AA?0?$AA?5?$AAL@ 000000018005e180     LIBCMTD:wassert.obj
 0002:000061e0       ??_C@_1BE@PHKBBGE@?$AAP?$AAr?$AAo?$AAg?$AAr?$AAa?$AAm?$AA?3?$AA?5?$AA?$AA@ 000000018005e1e0     LIBCMTD:wassert.obj
 0002:00006200       ??_C@_1FI@JIGMFG@?$AAw?$AAc?$AAs?$AAc?$AAa?$AAt?$AA_?$AAs?$AA?$CI?$AA?5?$AAa?$AAs?$AAs?$AAe?$AAr?$AAt?$AAb?$AAu?$AAf?$AA?0?$AA?5?$AA?$CI?$AA6?$AA0?$AA?5?$AA?$CK?$AA?5?$AA9?$AA?$CJ?$AA?0?$AA?5?$AAd@ 000000018005e200     LIBCMTD:wassert.obj
 0002:00006260       ??_C@_1GM@EFCJNBAA@?$AAw?$AAc?$AAs?$AAc?$AAp?$AAy?$AA_?$AAs?$AA?$CI?$AA?5?$AAa?$AAs?$AAs?$AAe?$AAr?$AAt?$AAb?$AAu?$AAf?$AA?0?$AA?5?$AA?$CI?$AA6?$AA0?$AA?5?$AA?$CK?$AA?5?$AA9?$AA?$CJ?$AA?0?$AA?5?$AAL@ 000000018005e260     LIBCMTD:wassert.obj
 0002:000062d0       ??_C@_1BC@LNOOMFNA@?$AA_?$AAw?$AAa?$AAs?$AAs?$AAe?$AAr?$AAt?$AA?$AA@ 000000018005e2d0     LIBCMTD:wassert.obj
 0002:000062f0       ??_C@_1GK@EAMFLNLB@?$AAf?$AA?3?$AA?2?$AAd?$AAd?$AA?2?$AAv?$AAc?$AAt?$AAo?$AAo?$AAl?$AAs?$AA?2?$AAc?$AAr?$AAt?$AA_?$AAb?$AAl?$AAd?$AA?2?$AAs?$AAe?$AAl?$AAf?$AA_?$AA6?$AA4?$AA_?$AAa?$AAm@ 000000018005e2f0     LIBCMTD:wassert.obj
 0002:00006360       ??_C@_1CE@OJBNHDMO@?$AAA?$AAs?$AAs?$AAe?$AAr?$AAt?$AAi?$AAo?$AAn?$AA?5?$AAf?$AAa?$AAi?$AAl?$AAe?$AAd?$AA?$CB?$AA?$AA@ 000000018005e360     LIBCMTD:wassert.obj
 0002:00006388       _pRawDllMain               000000018005e388     LIBCMTD:dllcrt0.obj
 0002:00006388       _pDefaultRawDllMain        000000018005e388     LIBCMTD:dllcrt0.obj
 0002:00006390       ??_C@_0DG@NKFPNEG@f?3?2dd?2vctools?2crt_bld?2self_64_am@ 000000018005e390     LIBCMTD:dllcrt0.obj
 0002:000063d0       ??_C@_1GM@HFLCJPGH@?$AAs?$AAt?$AAr?$AAc?$AAp?$AAy?$AA_?$AAs?$AA?$CI?$AAe?$AAr?$AAr?$AAm?$AAs?$AAg?$AA?0?$AA?5?$AA?$CI?$AA9?$AA4?$AA?$CL?$AA3?$AA8?$AA?$CL?$AA2?$AA?$CJ?$AA?0?$AA?5?$AA_?$AAg?$AAe?$AAt@ 000000018005e3d0     LIBCMTD:strerror.obj
 0002:00006440       ??_C@_1BC@CPPAPMCG@?$AAs?$AAt?$AAr?$AAe?$AAr?$AAr?$AAo?$AAr?$AA?$AA@ 000000018005e440     LIBCMTD:strerror.obj
 0002:00006460       ??_C@_1GO@BLMJHBPE@?$AAf?$AA?3?$AA?2?$AAd?$AAd?$AA?2?$AAv?$AAc?$AAt?$AAo?$AAo?$AAl?$AAs?$AA?2?$AAc?$AAr?$AAt?$AA_?$AAb?$AAl?$AAd?$AA?2?$AAs?$AAe?$AAl?$AAf?$AA_?$AA6?$AA4?$AA_?$AAa?$AAm@ 000000018005e460     LIBCMTD:strerror.obj
 0002:000064d0       ??_C@_0DH@FFDIOMIC@f?3?2dd?2vctools?2crt_bld?2self_64_am@ 000000018005e4d0     LIBCMTD:strerror.obj
 0002:00006510       ??_C@_0EA@FCLIIPNN@Visual?5C?$CL?$CL?5CRT?3?5Not?5enough?5memor@ 000000018005e510     LIBCMTD:strerror.obj
 0002:00006550       ??_C@_1CC@JNJFIMGE@?$AAs?$AAi?$AAz?$AAe?$AAI?$AAn?$AAT?$AAC?$AAh?$AAa?$AAr?$AAs?$AA?5?$AA?$DO?$AA?5?$AA0?$AA?$AA@ 000000018005e550     LIBCMTD:strerror.obj
 0002:00006578       ??_C@_1CI@HBNALCBB@?$AA?$CI?$AA?$CK?$AAm?$AAo?$AAd?$AAe?$AA?5?$AA?$CB?$AA?$DN?$AA?5?$AA_?$AAT?$AA?$CI?$AA?8?$AA?2?$AA0?$AA?8?$AA?$CJ?$AA?$CJ?$AA?$AA@ 000000018005e578     LIBCMTD:fopen.obj
 0002:000065a0       ??_C@_1BO@MJMKAKCJ@?$AA?$CI?$AAm?$AAo?$AAd?$AAe?$AA?5?$AA?$CB?$AA?$DN?$AA?5?$AAN?$AAU?$AAL?$AAL?$AA?$CJ?$AA?$AA@ 000000018005e5a0     LIBCMTD:fopen.obj
 0002:000065c0       ??_C@_1BA@HNEAFMNL@?$AA_?$AAf?$AAs?$AAo?$AAp?$AAe?$AAn?$AA?$AA@ 000000018005e5c0     LIBCMTD:fopen.obj
 0002:000065d0       ??_C@_1GI@LIMKHKB@?$AAf?$AA?3?$AA?2?$AAd?$AAd?$AA?2?$AAv?$AAc?$AAt?$AAo?$AAo?$AAl?$AAs?$AA?2?$AAc?$AAr?$AAt?$AA_?$AAb?$AAl?$AAd?$AA?2?$AAs?$AAe?$AAl?$AAf?$AA_?$AA6?$AA4?$AA_?$AAa?$AAm@ 000000018005e5d0     LIBCMTD:fopen.obj
 0002:00006638       ??_C@_1BO@CLGIAEOJ@?$AA?$CI?$AAf?$AAi?$AAl?$AAe?$AA?5?$AA?$CB?$AA?$DN?$AA?5?$AAN?$AAU?$AAL?$AAL?$AA?$CJ?$AA?$AA@ 000000018005e638     LIBCMTD:fopen.obj
 0002:00006658       ??_C@_1M@HCCOIONH@?$AAf?$AAs?$AAe?$AAe?$AAk?$AA?$AA@ 000000018005e658     LIBCMTD:fseek.obj
 0002:00006670       ??_C@_1GI@JLJAJOGI@?$AAf?$AA?3?$AA?2?$AAd?$AAd?$AA?2?$AAv?$AAc?$AAt?$AAo?$AAo?$AAl?$AAs?$AA?2?$AAc?$AAr?$AAt?$AA_?$AAb?$AAl?$AAd?$AA?2?$AAs?$AAe?$AAl?$AAf?$AA_?$AA6?$AA4?$AA_?$AAa?$AAm@ 000000018005e670     LIBCMTD:fseek.obj
 0002:000066d8       _pDestructExceptionObject  000000018005e6d8     LIBCMTD:frame.obj
 0002:000066e0       ??_C@_0O@DPKOEFFH@bad?5exception?$AA@ 000000018005e6e0     LIBCMTD:frame.obj
 0002:000066f8       ??_7bad_exception@std@@6B@ 000000018005e6f8     LIBCMTD:frame.obj
 0002:00006708       ??_C@_07LCBHPJJN@LC_TIME?$AA@ 000000018005e708     LIBCMTD:setlocal.obj
 0002:00006710       ??_C@_0L@DLHIECNL@LC_NUMERIC?$AA@ 000000018005e710     LIBCMTD:setlocal.obj
 0002:00006720       ??_C@_0M@MIENIKLA@LC_MONETARY?$AA@ 000000018005e720     LIBCMTD:setlocal.obj
 0002:00006730       ??_C@_08EADHIDAD@LC_CTYPE?$AA@ 000000018005e730     LIBCMTD:setlocal.obj
 0002:00006740       ??_C@_0L@KFJHEKIK@LC_COLLATE?$AA@ 000000018005e740     LIBCMTD:setlocal.obj
 0002:0000674c       ??_C@_06NEFDFEKB@LC_ALL?$AA@ 000000018005e74c     LIBCMTD:setlocal.obj
 0002:00006760       __lc_category              000000018005e760     LIBCMTD:setlocal.obj
 0002:00006870       ??_C@_1GO@HMGCKNMC@?$AAf?$AA?3?$AA?2?$AAd?$AAd?$AA?2?$AAv?$AAc?$AAt?$AAo?$AAo?$AAl?$AAs?$AA?2?$AAc?$AAr?$AAt?$AA_?$AAb?$AAl?$AAd?$AA?2?$AAs?$AAe?$AAl?$AAf?$AA_?$AA6?$AA4?$AA_?$AAa?$AAm@ 000000018005e870     LIBCMTD:setlocal.obj
 0002:000068e0       ??_C@_0DH@DAHENGAI@f?3?2dd?2vctools?2crt_bld?2self_64_am@ 000000018005e8e0     LIBCMTD:setlocal.obj
 0002:00006918       ??_C@_1BE@DBJGBOJC@?$AAs?$AAe?$AAt?$AAl?$AAo?$AAc?$AAa?$AAl?$AAe?$AA?$AA@ 000000018005e918     LIBCMTD:setlocal.obj
 0002:00006930       ??_C@_1FG@OHLFEKMC@?$AAL?$AAC?$AA_?$AAM?$AAI?$AAN?$AA?5?$AA?$DM?$AA?$DN?$AA?5?$AA_?$AAc?$AAa?$AAt?$AAe?$AAg?$AAo?$AAr?$AAy?$AA?5?$AA?$CG?$AA?$CG?$AA?5?$AA_?$AAc?$AAa?$AAt?$AAe?$AAg?$AAo?$AAr?$AAy@ 000000018005e930     LIBCMTD:setlocal.obj
 0002:00006990       ??_C@_1IA@PFIKKKFB@?$AAs?$AAt?$AAr?$AAn?$AAc?$AAp?$AAy?$AA_?$AAs?$AA?$CI?$AAl?$AAc?$AAt?$AAe?$AAm?$AAp?$AA?0?$AA?5?$AA?$CI?$AAs?$AAi?$AAz?$AAe?$AAo?$AAf?$AA?$CI?$AAl?$AAc?$AAt?$AAe?$AAm?$AAp@ 000000018005e990     LIBCMTD:setlocal.obj
 0002:00006a10       ??_C@_1CE@OFNHIOO@?$AA_?$AAs?$AAe?$AAt?$AAl?$AAo?$AAc?$AAa?$AAl?$AAe?$AA_?$AAn?$AAo?$AAl?$AAo?$AAc?$AAk?$AA?$AA@ 000000018005ea10     LIBCMTD:setlocal.obj
 0002:00006a34       ??_C@_01ICJEACDI@?$DL?$AA@ 000000018005ea34     LIBCMTD:setlocal.obj
 0002:00006a38       ??_C@_02BALPLPBG@?$DN?$DL?$AA@ 000000018005ea38     LIBCMTD:setlocal.obj
 0002:00006a40       ??_C@_1GO@JALHLJEH@?$AAs?$AAt?$AAr?$AAc?$AAp?$AAy?$AA_?$AAs?$AA?$CI?$AAp?$AAc?$AAh?$AA?5?$AA?$CL?$AA?5?$AAs?$AAi?$AAz?$AAe?$AAo?$AAf?$AA?$CI?$AAi?$AAn?$AAt?$AA?$CJ?$AA?0?$AA?5?$AAc?$AAc?$AAh?$AA?5@ 000000018005ea40     LIBCMTD:setlocal.obj
 0002:00006ab0       ??_C@_1CG@IEFIICPK@?$AA_?$AAs?$AAe?$AAt?$AAl?$AAo?$AAc?$AAa?$AAl?$AAe?$AA_?$AAs?$AAe?$AAt?$AA_?$AAc?$AAa?$AAt?$AA?$AA@ 000000018005eab0     LIBCMTD:setlocal.obj
 0002:00006ad8       ??_C@_1DA@GDKKLCLM@?$AAs?$AAt?$AAr?$AAc?$AAa?$AAt?$AA_?$AAs?$AA?$CI?$AAp?$AAc?$AAh?$AA?0?$AA?5?$AAc?$AAc?$AAh?$AA?0?$AA?5?$AA?$CC?$AA?$DL?$AA?$CC?$AA?$CJ?$AA?$AA@ 000000018005ead8     LIBCMTD:setlocal.obj
 0002:00006b08       ??_C@_1CG@NNFIJLDA@?$AA_?$AAs?$AAe?$AAt?$AAl?$AAo?$AAc?$AAa?$AAl?$AAe?$AA_?$AAg?$AAe?$AAt?$AA_?$AAa?$AAl?$AAl?$AA?$AA@ 000000018005eb08     LIBCMTD:setlocal.obj
 0002:00006b30       ??_C@_01NEMOKFLO@?$DN?$AA@ 000000018005eb30     LIBCMTD:setlocal.obj
 0002:00006b40       ??_C@_1FA@MHAOOIBO@?$AAs?$AAt?$AAr?$AAc?$AAp?$AAy?$AA_?$AAs?$AA?$CI?$AAo?$AAu?$AAt?$AAp?$AAu?$AAt?$AA?0?$AA?5?$AAs?$AAi?$AAz?$AAe?$AAI?$AAn?$AAC?$AAh?$AAa?$AAr?$AAs?$AA?0?$AA?5?$AAc?$AAa@ 000000018005eb40     LIBCMTD:setlocal.obj
 0002:00006b90       ??_C@_1IA@ONNFOEDA@?$AAs?$AAt?$AAr?$AAn?$AAc?$AAp?$AAy?$AA_?$AAs?$AA?$CI?$AAc?$AAa?$AAc?$AAh?$AAe?$AAi?$AAn?$AA?0?$AA?5?$AAc?$AAa?$AAc?$AAh?$AAe?$AAi?$AAn?$AAS?$AAi?$AAz?$AAe?$AA?0?$AA?5@ 000000018005eb90     LIBCMTD:setlocal.obj
 0002:00006c10       ??_C@_1EG@MOMHKOD@?$AAs?$AAt?$AAr?$AAc?$AAp?$AAy?$AA_?$AAs?$AA?$CI?$AAo?$AAu?$AAt?$AAp?$AAu?$AAt?$AA?0?$AA?5?$AAs?$AAi?$AAz?$AAe?$AAI?$AAn?$AAC?$AAh?$AAa?$AAr?$AAs?$AA?0?$AA?5?$AA?$CC?$AAC@ 000000018005ec10     LIBCMTD:setlocal.obj
 0002:00006c58       ??_C@_1BM@OIIBLEFG@?$AA_?$AAe?$AAx?$AAp?$AAa?$AAn?$AAd?$AAl?$AAo?$AAc?$AAa?$AAl?$AAe?$AA?$AA@ 000000018005ec58     LIBCMTD:setlocal.obj
 0002:00006c80       ??_C@_1BPM@IFKIALLP@?$AAs?$AAt?$AAr?$AAc?$AAa?$AAt?$AA_?$AAs?$AA?$CI?$AAo?$AAu?$AAt?$AAs?$AAt?$AAr?$AA?0?$AA?5?$AAs?$AAi?$AAz?$AAe?$AAI?$AAn?$AAB?$AAy?$AAt?$AAe?$AAs?$AA?0?$AA?5?$AA?$CI?$AA?5@ 000000018005ec80     LIBCMTD:setlocal.obj
 0002:00006e80       ??_C@_1BC@PIABMDIP@?$AA_?$AAs?$AAt?$AAr?$AAc?$AAa?$AAt?$AAs?$AA?$AA@ 000000018005ee80     LIBCMTD:setlocal.obj
 0002:00006ea0       ??_C@_1MM@NOPMGFHF@?$AAs?$AAt?$AAr?$AAn?$AAc?$AAp?$AAy?$AA_?$AAs?$AA?$CI?$AAn?$AAa?$AAm?$AAe?$AAs?$AA?9?$AA?$DO?$AAs?$AAz?$AAC?$AAo?$AAd?$AAe?$AAP?$AAa?$AAg?$AAe?$AA?0?$AA?5?$AA?$CI?$AAs?$AAi@ 000000018005eea0     LIBCMTD:setlocal.obj
 0002:00006f70       ??_C@_1MG@PHNILIAG@?$AAs?$AAt?$AAr?$AAn?$AAc?$AAp?$AAy?$AA_?$AAs?$AA?$CI?$AAn?$AAa?$AAm?$AAe?$AAs?$AA?9?$AA?$DO?$AAs?$AAz?$AAC?$AAo?$AAu?$AAn?$AAt?$AAr?$AAy?$AA?0?$AA?5?$AA?$CI?$AAs?$AAi?$AAz@ 000000018005ef70     LIBCMTD:setlocal.obj
 0002:00007040       ??_C@_1MM@BFEECMAF@?$AAs?$AAt?$AAr?$AAn?$AAc?$AAp?$AAy?$AA_?$AAs?$AA?$CI?$AAn?$AAa?$AAm?$AAe?$AAs?$AA?9?$AA?$DO?$AAs?$AAz?$AAL?$AAa?$AAn?$AAg?$AAu?$AAa?$AAg?$AAe?$AA?0?$AA?5?$AA?$CI?$AAs?$AAi@ 000000018005f040     LIBCMTD:setlocal.obj
 0002:0000710c       ??_C@_03EGDHDPFD@_?4?0?$AA@ 000000018005f10c     LIBCMTD:setlocal.obj
 0002:00007110       ??_C@_1NG@FMOPGKGG@?$AAs?$AAt?$AAr?$AAn?$AAc?$AAp?$AAy?$AA_?$AAs?$AA?$CI?$AAn?$AAa?$AAm?$AAe?$AAs?$AA?9?$AA?$DO?$AAs?$AAz?$AAC?$AAo?$AAd?$AAe?$AAP?$AAa?$AAg?$AAe?$AA?0?$AA?5?$AA?$CI?$AAs?$AAi@ 000000018005f110     LIBCMTD:setlocal.obj
 0002:000071e8       ??_C@_1BK@CBMMLAGJ@?$AA_?$AA_?$AAl?$AAc?$AA_?$AAs?$AAt?$AAr?$AAt?$AAo?$AAl?$AAc?$AA?$AA@ 000000018005f1e8     LIBCMTD:setlocal.obj
 0002:00007204       ??_C@_01LFCBOECM@?4?$AA@   000000018005f204     LIBCMTD:setlocal.obj
 0002:00007208       ??_C@_01IDAFKMJL@_?$AA@    000000018005f208     LIBCMTD:setlocal.obj
 0002:00007210       ??_C@_1HC@IBDBLKCB@?$AAs?$AAt?$AAr?$AAc?$AAp?$AAy?$AA_?$AAs?$AA?$CI?$AAl?$AAo?$AAc?$AAa?$AAl?$AAe?$AA?0?$AA?5?$AAs?$AAi?$AAz?$AAe?$AAI?$AAn?$AAB?$AAy?$AAt?$AAe?$AAs?$AA?0?$AA?5?$AA?$CI?$AAc@ 000000018005f210     LIBCMTD:setlocal.obj
 0002:00007288       ??_C@_1BK@FGDJDEPG@?$AA_?$AA_?$AAl?$AAc?$AA_?$AAl?$AAc?$AAt?$AAo?$AAs?$AAt?$AAr?$AA?$AA@ 000000018005f288     LIBCMTD:setlocal.obj
 0002:000072b0       ??_C@_1GK@ODBLNICG@?$AAf?$AA?3?$AA?2?$AAd?$AAd?$AA?2?$AAv?$AAc?$AAt?$AAo?$AAo?$AAl?$AAs?$AA?2?$AAc?$AAr?$AAt?$AA_?$AAb?$AAl?$AAd?$AA?2?$AAs?$AAe?$AAl?$AAf?$AA_?$AA6?$AA4?$AA_?$AAa?$AAm@ 000000018005f2b0     LIBCMTD:a_map.obj
 0002:00007320       ??_C@_1FE@KNPCCODH@?$AA?$CI?$AA?$CC?$AAC?$AAo?$AAr?$AAr?$AAu?$AAp?$AAt?$AAe?$AAd?$AA?5?$AAp?$AAo?$AAi?$AAn?$AAt?$AAe?$AAr?$AA?5?$AAp?$AAa?$AAs?$AAs?$AAe?$AAd?$AA?5?$AAt?$AAo?$AA?5?$AA_?$AAf@ 000000018005f320     LIBCMTD:a_map.obj
 0002:00007380       __newctype                 000000018005f380     LIBCMTD:ctype.obj
 0002:00007680       _wctype                    000000018005f680     LIBCMTD:ctype.obj
 0002:00007890       __newclmap                 000000018005f890     LIBCMTD:ctype.obj
 0002:00007a10       __newcumap                 000000018005fa10     LIBCMTD:ctype.obj
 0002:00007b90       ??_C@_1DG@NMBGBDM@?$AAp?$AAl?$AAo?$AAc?$AAi?$AA?9?$AA?$DO?$AAc?$AAt?$AAy?$AAp?$AAe?$AA1?$AA_?$AAr?$AAe?$AAf?$AAc?$AAo?$AAu?$AAn?$AAt?$AA?5?$AA?$DO?$AA?5?$AA0?$AA?$AA@ 000000018005fb90     LIBCMTD:initctyp.obj
 0002:00007bd0       ??_C@_1GO@HFNANBHP@?$AAf?$AA?3?$AA?2?$AAd?$AAd?$AA?2?$AAv?$AAc?$AAt?$AAo?$AAo?$AAl?$AAs?$AA?2?$AAc?$AAr?$AAt?$AA_?$AAb?$AAl?$AAd?$AA?2?$AAs?$AAe?$AAl?$AAf?$AA_?$AA6?$AA4?$AA_?$AAa?$AAm@ 000000018005fbd0     LIBCMTD:initctyp.obj
 0002:00007c40       ??_C@_0DH@OFDAFCDL@f?3?2dd?2vctools?2crt_bld?2self_64_am@ 000000018005fc40     LIBCMTD:initctyp.obj
 0002:00007c78       ??_C@_1BE@KFBKGHJC@?$AA_?$AAs?$AAt?$AAr?$AAt?$AAo?$AAd?$AA_?$AAl?$AA?$AA@ 000000018005fc78     LIBCMTD:strtod.obj
 0002:00007c90       ??_C@_1GK@DCBCAJMJ@?$AAf?$AA?3?$AA?2?$AAd?$AAd?$AA?2?$AAv?$AAc?$AAt?$AAo?$AAo?$AAl?$AAs?$AA?2?$AAc?$AAr?$AAt?$AA_?$AAb?$AAl?$AAd?$AA?2?$AAs?$AAe?$AAl?$AAf?$AA_?$AA6?$AA4?$AA_?$AAa?$AAm@ 000000018005fc90     LIBCMTD:strtod.obj
 0002:00007d00       ??_C@_1BK@LAOAACLJ@?$AAn?$AAp?$AAt?$AAr?$AA?5?$AA?$CB?$AA?$DN?$AA?5?$AAN?$AAU?$AAL?$AAL?$AA?$AA@ 000000018005fd00     LIBCMTD:strtod.obj
 0002:00007d20       ??_C@_1CM@HABGDNLJ@?$AAl?$AAe?$AAn?$AAg?$AAt?$AAh?$AA?5?$AA?$DM?$AA?5?$AAs?$AAi?$AAz?$AAe?$AAI?$AAn?$AAT?$AAC?$AAh?$AAa?$AAr?$AAs?$AA?$AA@ 000000018005fd20     LIBCMTD:xtoas.obj
 0002:00007d50       ??_C@_1DE@PCJGDBBD@?$AA2?$AA?5?$AA?$DM?$AA?$DN?$AA?5?$AAr?$AAa?$AAd?$AAi?$AAx?$AA?5?$AA?$CG?$AA?$CG?$AA?5?$AAr?$AAa?$AAd?$AAi?$AAx?$AA?5?$AA?$DM?$AA?$DN?$AA?5?$AA3?$AA6?$AA?$AA@ 000000018005fd50     LIBCMTD:xtoas.obj
 0002:00007d90       ??_C@_1FA@MKGGAGEI@?$AAs?$AAi?$AAz?$AAe?$AAI?$AAn?$AAT?$AAC?$AAh?$AAa?$AAr?$AAs?$AA?5?$AA?$DO?$AA?5?$AA?$CI?$AAs?$AAi?$AAz?$AAe?$AA_?$AAt?$AA?$CJ?$AA?$CI?$AAi?$AAs?$AA_?$AAn?$AAe?$AAg?$AA?5?$AA?$DP@ 000000018005fd90     LIBCMTD:xtoas.obj
 0002:00007de0       ??_C@_1O@GIMBNLEI@?$AAx?$AAt?$AAo?$AAa?$AA_?$AAs?$AA?$AA@ 000000018005fde0     LIBCMTD:xtoas.obj
 0002:00007df0       ??_C@_1GG@LKIPKMBN@?$AAf?$AA?3?$AA?2?$AAd?$AAd?$AA?2?$AAv?$AAc?$AAt?$AAo?$AAo?$AAl?$AAs?$AA?2?$AAc?$AAr?$AAt?$AA_?$AAb?$AAl?$AAd?$AA?2?$AAs?$AAe?$AAl?$AAf?$AA_?$AA6?$AA4?$AA_?$AAa?$AAm@ 000000018005fdf0     LIBCMTD:xtoas.obj
 0002:00007e58       ??_C@_1BI@ICGGMGLK@?$AAb?$AAu?$AAf?$AA?5?$AA?$CB?$AA?$DN?$AA?5?$AAN?$AAU?$AAL?$AAL?$AA?$AA@ 000000018005fe58     LIBCMTD:xtoas.obj
 0002:00007e70       ??_C@_0DG@NKGMMPE@f?3?2dd?2vctools?2crt_bld?2self_64_am@ 000000018005fe70     LIBCMTD:_sftbuf.obj
 0002:00007eb0       ??_C@_1GM@EPPIIABD@?$AAf?$AA?3?$AA?2?$AAd?$AAd?$AA?2?$AAv?$AAc?$AAt?$AAo?$AAo?$AAl?$AAs?$AA?2?$AAc?$AAr?$AAt?$AA_?$AAb?$AAl?$AAd?$AA?2?$AAs?$AAe?$AAl?$AAf?$AA_?$AA6?$AA4?$AA_?$AAa?$AAm@ 000000018005feb0     LIBCMTD:_sftbuf.obj
 0002:00007f20       ??_C@_1CO@KCKAACMI@?$AAf?$AAl?$AAa?$AAg?$AA?5?$AA?$DN?$AA?$DN?$AA?5?$AA0?$AA?5?$AA?$HM?$AA?$HM?$AA?5?$AAf?$AAl?$AAa?$AAg?$AA?5?$AA?$DN?$AA?$DN?$AA?5?$AA1?$AA?$AA@ 000000018005ff20     LIBCMTD:_sftbuf.obj
 0002:00007f50       ??_C@_1O@CEDCILHN@?$AA?$CI?$AAn?$AAu?$AAl?$AAl?$AA?$CJ?$AA?$AA@ 000000018005ff50     LIBCMTD:output.obj
 0002:00007f60       ??_C@_06OJHGLDPL@?$CInull?$CJ?$AA@ 000000018005ff60     LIBCMTD:output.obj
 0002:00007f70       __lookuptable              000000018005ff70     LIBCMTD:output.obj
 0002:00007fd0       ??_C@_0DF@MNLBDNAL@f?3?2dd?2vctools?2crt_bld?2self_64_am@ 000000018005ffd0     LIBCMTD:output.obj
 0002:00008010       ??_C@_1EK@PNGFDECN@?$AA?$CI?$AA?$CC?$AA?8?$AAn?$AA?8?$AA?5?$AAf?$AAo?$AAr?$AAm?$AAa?$AAt?$AA?5?$AAs?$AAp?$AAe?$AAc?$AAi?$AAf?$AAi?$AAe?$AAr?$AA?5?$AAd?$AAi?$AAs?$AAa?$AAb?$AAl?$AAe?$AAd?$AA?$CC@ 0000000180060010     LIBCMTD:output.obj
 0002:00008060       ??_C@_1CC@IFFHEMNF@?$AA?$CI?$AAc?$AAh?$AA?5?$AA?$CB?$AA?$DN?$AA?5?$AA_?$AAT?$AA?$CI?$AA?8?$AA?2?$AA0?$AA?8?$AA?$CJ?$AA?$CJ?$AA?$AA@ 0000000180060060     LIBCMTD:output.obj
 0002:00008088       ??_C@_1BE@IONLIDNC@?$AA_?$AAo?$AAu?$AAt?$AAp?$AAu?$AAt?$AA_?$AAl?$AA?$AA@ 0000000180060088     LIBCMTD:output.obj
 0002:000080a0       ??_C@_1GK@BJNDONIJ@?$AAf?$AA?3?$AA?2?$AAd?$AAd?$AA?2?$AAv?$AAc?$AAt?$AAo?$AAo?$AAl?$AAs?$AA?2?$AAc?$AAr?$AAt?$AA_?$AAb?$AAl?$AAd?$AA?2?$AAs?$AAe?$AAl?$AAf?$AA_?$AA6?$AA4?$AA_?$AAa?$AAm@ 00000001800600a0     LIBCMTD:output.obj
 0002:00008120       ??_C@_1BO@BKOMIGKJ@?$AAr?$AAu?$AAn?$AAt?$AAi?$AAm?$AAe?$AA?5?$AAe?$AAr?$AAr?$AAo?$AAr?$AA?5?$AA?$AA@ 0000000180060120     LIBCMTD:crt0msg.obj
 0002:00008140       ??_C@_15JNBOKNOG@?$AA?$AN?$AA?6?$AA?$AA@ 0000000180060140     LIBCMTD:crt0msg.obj
 0002:00008148       ??_C@_1BM@JBBEPPHI@?$AAT?$AAL?$AAO?$AAS?$AAS?$AA?5?$AAe?$AAr?$AAr?$AAo?$AAr?$AA?$AN?$AA?6?$AA?$AA@ 0000000180060148     LIBCMTD:crt0msg.obj
 0002:00008168       ??_C@_1BK@KMOMNAAI@?$AAS?$AAI?$AAN?$AAG?$AA?5?$AAe?$AAr?$AAr?$AAo?$AAr?$AA?$AN?$AA?6?$AA?$AA@ 0000000180060168     LIBCMTD:crt0msg.obj
 0002:00008188       ??_C@_1BO@BFCDCGC@?$AAD?$AAO?$AAM?$AAA?$AAI?$AAN?$AA?5?$AAe?$AAr?$AAr?$AAo?$AAr?$AA?$AN?$AA?6?$AA?$AA@ 0000000180060188     LIBCMTD:crt0msg.obj
 0002:000081b0       ??_C@_1BOO@KGEDBGAJ@?$AAR?$AA6?$AA0?$AA3?$AA3?$AA?$AN?$AA?6?$AA?9?$AA?5?$AAA?$AAt?$AAt?$AAe?$AAm?$AAp?$AAt?$AA?5?$AAt?$AAo?$AA?5?$AAu?$AAs?$AAe?$AA?5?$AAM?$AAS?$AAI?$AAL?$AA?5?$AAc?$AAo?$AAd@ 00000001800601b0     LIBCMTD:crt0msg.obj
 0002:000083a0       ??_C@_1GG@GOPILAJP@?$AAR?$AA6?$AA0?$AA3?$AA2?$AA?$AN?$AA?6?$AA?9?$AA?5?$AAn?$AAo?$AAt?$AA?5?$AAe?$AAn?$AAo?$AAu?$AAg?$AAh?$AA?5?$AAs?$AAp?$AAa?$AAc?$AAe?$AA?5?$AAf?$AAo?$AAr?$AA?5?$AAl?$AAo@ 00000001800603a0     LIBCMTD:crt0msg.obj
 0002:00008410       ??_C@_1MG@ENCOOIDF@?$AAR?$AA6?$AA0?$AA3?$AA1?$AA?$AN?$AA?6?$AA?9?$AA?5?$AAA?$AAt?$AAt?$AAe?$AAm?$AAp?$AAt?$AA?5?$AAt?$AAo?$AA?5?$AAi?$AAn?$AAi?$AAt?$AAi?$AAa?$AAl?$AAi?$AAz?$AAe?$AA?5?$AAt@ 0000000180060410     LIBCMTD:crt0msg.obj
 0002:000084d8       ??_C@_1DO@BMFCDCD@?$AAR?$AA6?$AA0?$AA3?$AA0?$AA?$AN?$AA?6?$AA?9?$AA?5?$AAC?$AAR?$AAT?$AA?5?$AAn?$AAo?$AAt?$AA?5?$AAi?$AAn?$AAi?$AAt?$AAi?$AAa?$AAl?$AAi?$AAz?$AAe?$AAd?$AA?$AN?$AA?6?$AA?$AA@ 00000001800604d8     LIBCMTD:crt0msg.obj
 0002:00008520       ??_C@_1EK@HHFLMAOL@?$AAR?$AA6?$AA0?$AA2?$AA8?$AA?$AN?$AA?6?$AA?9?$AA?5?$AAu?$AAn?$AAa?$AAb?$AAl?$AAe?$AA?5?$AAt?$AAo?$AA?5?$AAi?$AAn?$AAi?$AAt?$AAi?$AAa?$AAl?$AAi?$AAz?$AAe?$AA?5?$AAh?$AAe@ 0000000180060520     LIBCMTD:crt0msg.obj
 0002:00008570       ??_C@_1GK@MFGOKLAG@?$AAR?$AA6?$AA0?$AA2?$AA7?$AA?$AN?$AA?6?$AA?9?$AA?5?$AAn?$AAo?$AAt?$AA?5?$AAe?$AAn?$AAo?$AAu?$AAg?$AAh?$AA?5?$AAs?$AAp?$AAa?$AAc?$AAe?$AA?5?$AAf?$AAo?$AAr?$AA?5?$AAl?$AAo@ 0000000180060570     LIBCMTD:crt0msg.obj
 0002:000085e0       ??_C@_1GK@MCAAGJMO@?$AAR?$AA6?$AA0?$AA2?$AA6?$AA?$AN?$AA?6?$AA?9?$AA?5?$AAn?$AAo?$AAt?$AA?5?$AAe?$AAn?$AAo?$AAu?$AAg?$AAh?$AA?5?$AAs?$AAp?$AAa?$AAc?$AAe?$AA?5?$AAf?$AAo?$AAr?$AA?5?$AAs?$AAt@ 00000001800605e0     LIBCMTD:crt0msg.obj
 0002:00008650       ??_C@_1EM@MAADIHMB@?$AAR?$AA6?$AA0?$AA2?$AA5?$AA?$AN?$AA?6?$AA?9?$AA?5?$AAp?$AAu?$AAr?$AAe?$AA?5?$AAv?$AAi?$AAr?$AAt?$AAu?$AAa?$AAl?$AA?5?$AAf?$AAu?$AAn?$AAc?$AAt?$AAi?$AAo?$AAn?$AA?5?$AAc@ 0000000180060650     LIBCMTD:crt0msg.obj
 0002:000086a0       ??_C@_1GK@FHCKBEFA@?$AAR?$AA6?$AA0?$AA2?$AA4?$AA?$AN?$AA?6?$AA?9?$AA?5?$AAn?$AAo?$AAt?$AA?5?$AAe?$AAn?$AAo?$AAu?$AAg?$AAh?$AA?5?$AAs?$AAp?$AAa?$AAc?$AAe?$AA?5?$AAf?$AAo?$AAr?$AA?5?$AA_?$AAo@ 00000001800606a0     LIBCMTD:crt0msg.obj
 0002:00008710       ??_C@_1FC@ECHBIFBC@?$AAR?$AA6?$AA0?$AA1?$AA9?$AA?$AN?$AA?6?$AA?9?$AA?5?$AAu?$AAn?$AAa?$AAb?$AAl?$AAe?$AA?5?$AAt?$AAo?$AA?5?$AAo?$AAp?$AAe?$AAn?$AA?5?$AAc?$AAo?$AAn?$AAs?$AAo?$AAl?$AAe?$AA?5@ 0000000180060710     LIBCMTD:crt0msg.obj
 0002:00008770       ??_C@_1EC@JIBHAOPH@?$AAR?$AA6?$AA0?$AA1?$AA8?$AA?$AN?$AA?6?$AA?9?$AA?5?$AAu?$AAn?$AAe?$AAx?$AAp?$AAe?$AAc?$AAt?$AAe?$AAd?$AA?5?$AAh?$AAe?$AAa?$AAp?$AA?5?$AAe?$AAr?$AAr?$AAo?$AAr?$AA?$AN?$AA?6@ 0000000180060770     LIBCMTD:crt0msg.obj
 0002:000087c0       ??_C@_1FK@BEOGODMC@?$AAR?$AA6?$AA0?$AA1?$AA7?$AA?$AN?$AA?6?$AA?9?$AA?5?$AAu?$AAn?$AAe?$AAx?$AAp?$AAe?$AAc?$AAt?$AAe?$AAd?$AA?5?$AAm?$AAu?$AAl?$AAt?$AAi?$AAt?$AAh?$AAr?$AAe?$AAa?$AAd?$AA?5@ 00000001800607c0     LIBCMTD:crt0msg.obj
 0002:00008820       ??_C@_1FI@LOGNIKDM@?$AAR?$AA6?$AA0?$AA1?$AA6?$AA?$AN?$AA?6?$AA?9?$AA?5?$AAn?$AAo?$AAt?$AA?5?$AAe?$AAn?$AAo?$AAu?$AAg?$AAh?$AA?5?$AAs?$AAp?$AAa?$AAc?$AAe?$AA?5?$AAf?$AAo?$AAr?$AA?5?$AAt?$AAh@ 0000000180060820     LIBCMTD:crt0msg.obj
 0002:00008880       ??_C@_1EG@BEHAGFJD@?$AAR?$AA6?$AA0?$AA1?$AA0?$AA?$AN?$AA?6?$AA?9?$AA?5?$AAa?$AAb?$AAo?$AAr?$AAt?$AA?$CI?$AA?$CJ?$AA?5?$AAh?$AAa?$AAs?$AA?5?$AAb?$AAe?$AAe?$AAn?$AA?5?$AAc?$AAa?$AAl?$AAl?$AAe?$AAd@ 0000000180060880     LIBCMTD:crt0msg.obj
 0002:000088d0       ??_C@_1FI@HONFMGBI@?$AAR?$AA6?$AA0?$AA0?$AA9?$AA?$AN?$AA?6?$AA?9?$AA?5?$AAn?$AAo?$AAt?$AA?5?$AAe?$AAn?$AAo?$AAu?$AAg?$AAh?$AA?5?$AAs?$AAp?$AAa?$AAc?$AAe?$AA?5?$AAf?$AAo?$AAr?$AA?5?$AAe?$AAn@ 00000001800608d0     LIBCMTD:crt0msg.obj
 0002:00008930       ??_C@_1FE@LLNEDJMD@?$AAR?$AA6?$AA0?$AA0?$AA8?$AA?$AN?$AA?6?$AA?9?$AA?5?$AAn?$AAo?$AAt?$AA?5?$AAe?$AAn?$AAo?$AAu?$AAg?$AAh?$AA?5?$AAs?$AAp?$AAa?$AAc?$AAe?$AA?5?$AAf?$AAo?$AAr?$AA?5?$AAa?$AAr@ 0000000180060930     LIBCMTD:crt0msg.obj
 0002:00008990       ??_C@_1FK@PGACCAFB@?$AAR?$AA6?$AA0?$AA0?$AA2?$AA?$AN?$AA?6?$AA?9?$AA?5?$AAf?$AAl?$AAo?$AAa?$AAt?$AAi?$AAn?$AAg?$AA?5?$AAp?$AAo?$AAi?$AAn?$AAt?$AA?5?$AAs?$AAu?$AAp?$AAp?$AAo?$AAr?$AAt?$AA?5@ 0000000180060990     LIBCMTD:crt0msg.obj
 0002:00008b50       ??_C@_1IG@NMONDPP@?$AAw?$AAc?$AAs?$AAc?$AAa?$AAt?$AA_?$AAs?$AA?$CI?$AAo?$AAu?$AAt?$AAm?$AAs?$AAg?$AA?0?$AA?5?$AA?$CI?$AAs?$AAi?$AAz?$AAe?$AAo?$AAf?$AA?$CI?$AAo?$AAu?$AAt?$AAm?$AAs?$AAg?$AA?$CJ@ 0000000180060b50     LIBCMTD:crt0msg.obj
 0002:00008be0       ??_C@_1IA@DCJGKHFO@?$AAw?$AAc?$AAs?$AAc?$AAa?$AAt?$AA_?$AAs?$AA?$CI?$AAo?$AAu?$AAt?$AAm?$AAs?$AAg?$AA?0?$AA?5?$AA?$CI?$AAs?$AAi?$AAz?$AAe?$AAo?$AAf?$AA?$CI?$AAo?$AAu?$AAt?$AAm?$AAs?$AAg?$AA?$CJ@ 0000000180060be0     LIBCMTD:crt0msg.obj
 0002:00008c60       ??_C@_1HI@FLHKGEBE@?$AAw?$AAc?$AAs?$AAn?$AAc?$AAp?$AAy?$AA_?$AAs?$AA?$CI?$AAp?$AAc?$AAh?$AA?0?$AA?5?$AAp?$AAr?$AAo?$AAg?$AAn?$AAa?$AAm?$AAe?$AA_?$AAs?$AAi?$AAz?$AAe?$AA?5?$AA?9?$AA?5?$AA?$CI@ 0000000180060c60     LIBCMTD:crt0msg.obj
 0002:00008ce0       ??_C@_1HK@FJJNAABO@?$AAw?$AAc?$AAs?$AAc?$AAp?$AAy?$AA_?$AAs?$AA?$CI?$AAp?$AAr?$AAo?$AAg?$AAn?$AAa?$AAm?$AAe?$AA?0?$AA?5?$AAp?$AAr?$AAo?$AAg?$AAn?$AAa?$AAm?$AAe?$AA_?$AAs?$AAi?$AAz?$AAe@ 0000000180060ce0     LIBCMTD:crt0msg.obj
 0002:00008d60       ??_C@_1KO@BKLCKNFL@?$AAw?$AAc?$AAs?$AAc?$AAp?$AAy?$AA_?$AAs?$AA?$CI?$AAo?$AAu?$AAt?$AAm?$AAs?$AAg?$AA?0?$AA?5?$AA?$CI?$AAs?$AAi?$AAz?$AAe?$AAo?$AAf?$AA?$CI?$AAo?$AAu?$AAt?$AAm?$AAs?$AAg?$AA?$CJ@ 0000000180060d60     LIBCMTD:crt0msg.obj
 0002:00008e10       ??_C@_1BI@EAHMBMEC@?$AA_?$AAN?$AAM?$AAS?$AAG?$AA_?$AAW?$AAR?$AAI?$AAT?$AAE?$AA?$AA@ 0000000180060e10     LIBCMTD:crt0msg.obj
 0002:00008e30       ??_C@_1GM@DBEHMII@?$AAf?$AA?3?$AA?2?$AAd?$AAd?$AA?2?$AAv?$AAc?$AAt?$AAo?$AAo?$AAl?$AAs?$AA?2?$AAc?$AAr?$AAt?$AA_?$AAb?$AAl?$AAd?$AA?2?$AAs?$AAe?$AAl?$AAf?$AA_?$AA6?$AA4?$AA_?$AAa?$AAm@ 0000000180060e30     LIBCMTD:crt0msg.obj
 0002:00008ea0       ??_C@_1DE@JNGNBFGO@?$AAR?$AAu?$AAn?$AAt?$AAi?$AAm?$AAe?$AA?5?$AAE?$AAr?$AAr?$AAo?$AAr?$AA?$CB?$AA?6?$AA?6?$AAP?$AAr?$AAo?$AAg?$AAr?$AAa?$AAm?$AA?3?$AA?5?$AA?$AA@ 0000000180060ea0     LIBCMTD:crt0msg.obj
 0002:00008ed8       ??_C@_0DG@CBLPBEGB@f?3?2dd?2vctools?2crt_bld?2self_64_am@ 0000000180060ed8     LIBCMTD:mbctype.obj
 0002:00008f38       ??_C@_0DH@BOBGGICJ@f?3?2dd?2vctools?2crt_bld?2self_64_am@ 0000000180060f38     LIBCMTD:tidtable.obj
 0002:00008f70       ??_C@_0DE@NIIINDPP@f?3?2dd?2vctools?2crt_bld?2self_64_am@ 0000000180060f70     LIBCMTD:mlock.obj
 0002:00008fb0       ??_C@_1GK@GNJJJBGC@?$AAf?$AA?3?$AA?2?$AAd?$AAd?$AA?2?$AAv?$AAc?$AAt?$AAo?$AAo?$AAl?$AAs?$AA?2?$AAc?$AAr?$AAt?$AA_?$AAb?$AAl?$AAd?$AA?2?$AAs?$AAe?$AAl?$AAf?$AA_?$AA6?$AA4?$AA_?$AAa?$AAm@ 0000000180060fb0     LIBCMTD:winsig.obj
 0002:00009020       ??_C@_1DO@MLNEDKGB@?$AA?$CI?$AA?$CC?$AAI?$AAn?$AAv?$AAa?$AAl?$AAi?$AAd?$AA?5?$AAs?$AAi?$AAg?$AAn?$AAa?$AAl?$AA?5?$AAo?$AAr?$AA?5?$AAe?$AAr?$AAr?$AAo?$AAr?$AA?$CC?$AA?0?$AA?5?$AA0?$AA?$CJ?$AA?$AA@ 0000000180061020     LIBCMTD:winsig.obj
 0002:00009060       ??_C@_1M@DMJEIKHL@?$AAr?$AAa?$AAi?$AAs?$AAe?$AA?$AA@ 0000000180061060     LIBCMTD:winsig.obj
 0002:00009070       ??_C@_1GO@NGIGJNHH@?$AAs?$AAt?$AAr?$AAn?$AAc?$AAp?$AAy?$AA_?$AAs?$AA?$CI?$AA?$CK?$AAs?$AAt?$AAr?$AAa?$AAd?$AAd?$AAr?$AAe?$AAs?$AAs?$AA?0?$AA?5?$AAo?$AAu?$AAt?$AAs?$AAi?$AAz?$AAe?$AA?0?$AA?5@ 0000000180061070     LIBCMTD:inithelp.obj
 0002:000090e0       ??_C@_1CA@KHHCPEI@?$AA_?$AA_?$AAg?$AAe?$AAt?$AAl?$AAo?$AAc?$AAa?$AAl?$AAe?$AAi?$AAn?$AAf?$AAo?$AA?$AA@ 00000001800610e0     LIBCMTD:inithelp.obj
 0002:00009100       ??_C@_1GO@GMNCABKN@?$AAf?$AA?3?$AA?2?$AAd?$AAd?$AA?2?$AAv?$AAc?$AAt?$AAo?$AAo?$AAl?$AAs?$AA?2?$AAc?$AAr?$AAt?$AA_?$AAb?$AAl?$AAd?$AA?2?$AAs?$AAe?$AAl?$AAf?$AA_?$AA6?$AA4?$AA_?$AAa?$AAm@ 0000000180061100     LIBCMTD:inithelp.obj
 0002:00009170       ??_C@_0DH@IHLNMPAN@f?3?2dd?2vctools?2crt_bld?2self_64_am@ 0000000180061170     LIBCMTD:inithelp.obj
 0002:000091a8       ??_C@_0DF@MJBFINAE@f?3?2dd?2vctools?2crt_bld?2self_64_am@ 00000001800611a8     LIBCMTD:ioinit.obj
 0002:000091e0       ??_C@_1HO@MLMGPAFH@?$AA?$CI?$AA?$CC?$AAi?$AAn?$AAc?$AAo?$AAn?$AAs?$AAi?$AAs?$AAt?$AAe?$AAn?$AAt?$AA?5?$AAI?$AAO?$AAB?$AA?5?$AAf?$AAi?$AAe?$AAl?$AAd?$AAs?$AA?$CC?$AA?0?$AA?5?$AAs?$AAt?$AAr?$AAe@ 00000001800611e0     LIBCMTD:_flsbuf.obj
 0002:00009260       ??_C@_1GM@BENPKNAA@?$AAf?$AA?3?$AA?2?$AAd?$AAd?$AA?2?$AAv?$AAc?$AAt?$AAo?$AAo?$AAl?$AAs?$AA?2?$AAc?$AAr?$AAt?$AA_?$AAb?$AAl?$AAd?$AA?2?$AAs?$AAe?$AAl?$AAf?$AA_?$AA6?$AA4?$AA_?$AAa?$AAm@ 0000000180061260     LIBCMTD:_flsbuf.obj
 0002:000092d0       ??_C@_1JE@ECKHFIFP@?$AA?$CI?$AA?$CC?$AAI?$AAn?$AAv?$AAa?$AAl?$AAi?$AAd?$AA?5?$AAf?$AAi?$AAl?$AAe?$AA?5?$AAd?$AAe?$AAs?$AAc?$AAr?$AAi?$AAp?$AAt?$AAo?$AAr?$AA?4?$AA?5?$AAF?$AAi?$AAl?$AAe?$AA?5@ 00000001800612d0     LIBCMTD:write.obj
 0002:00009368       ??_C@_1CM@OKGMMMDH@?$AA?$CI?$AA_?$AAo?$AAs?$AAf?$AAi?$AAl?$AAe?$AA?$CI?$AAf?$AAh?$AA?$CJ?$AA?5?$AA?$CG?$AA?5?$AAF?$AAO?$AAP?$AAE?$AAN?$AA?$CJ?$AA?$AA@ 0000000180061368     LIBCMTD:write.obj
 0002:00009398       ??_C@_1O@KOFKDHPL@?$AA_?$AAw?$AAr?$AAi?$AAt?$AAe?$AA?$AA@ 0000000180061398     LIBCMTD:write.obj
 0002:000093b0       ??_C@_1GI@JGDMGFHE@?$AAf?$AA?3?$AA?2?$AAd?$AAd?$AA?2?$AAv?$AAc?$AAt?$AAo?$AAo?$AAl?$AAs?$AA?2?$AAc?$AAr?$AAt?$AA_?$AAb?$AAl?$AAd?$AA?2?$AAs?$AAe?$AAl?$AAf?$AA_?$AA6?$AA4?$AA_?$AAa?$AAm@ 00000001800613b0     LIBCMTD:write.obj
 0002:00009420       ??_C@_1FO@LPCLHKGE@?$AA?$CI?$AAf?$AAh?$AA?5?$AA?$DO?$AA?$DN?$AA?5?$AA0?$AA?5?$AA?$CG?$AA?$CG?$AA?5?$AA?$CI?$AAu?$AAn?$AAs?$AAi?$AAg?$AAn?$AAe?$AAd?$AA?$CJ?$AAf?$AAh?$AA?5?$AA?$DM?$AA?5?$AA?$CI?$AAu?$AAn?$AAs?$AAi@ 0000000180061420     LIBCMTD:write.obj
 0002:00009480       ??_C@_1DI@CNMHHHLG@?$AAi?$AAs?$AAl?$AAe?$AAa?$AAd?$AAb?$AAy?$AAt?$AAe?$AA?$CI?$AA_?$AAd?$AAb?$AAc?$AAs?$AAB?$AAu?$AAf?$AAf?$AAe?$AAr?$AA?$CI?$AAf?$AAh?$AA?$CJ?$AA?$CJ?$AA?$AA@ 0000000180061480     LIBCMTD:write.obj
 0002:000094b8       ??_C@_1CC@EEOLPHGO@?$AA?$CI?$AA?$CI?$AAc?$AAn?$AAt?$AA?5?$AA?$CG?$AA?5?$AA1?$AA?$CJ?$AA?5?$AA?$DN?$AA?$DN?$AA?5?$AA0?$AA?$CJ?$AA?$AA@ 00000001800614b8     LIBCMTD:write.obj
 0002:000094e0       ??_C@_1BM@NCANHCIP@?$AA_?$AAw?$AAr?$AAi?$AAt?$AAe?$AA_?$AAn?$AAo?$AAl?$AAo?$AAc?$AAk?$AA?$AA@ 00000001800614e0     LIBCMTD:write.obj
 0002:00009500       ??_C@_1BM@KFJLMBPG@?$AA?$CI?$AAb?$AAu?$AAf?$AA?5?$AA?$CB?$AA?$DN?$AA?5?$AAN?$AAU?$AAL?$AAL?$AA?$CJ?$AA?$AA@ 0000000180061500     LIBCMTD:write.obj
 0002:00009520       ??_C@_1BA@JGHIEKKM@?$AA_?$AAf?$AAi?$AAl?$AAe?$AAn?$AAo?$AA?$AA@ 0000000180061520     LIBCMTD:fileno.obj
 0002:00009530       ??_C@_1GK@JPBKPHOG@?$AAf?$AA?3?$AA?2?$AAd?$AAd?$AA?2?$AAv?$AAc?$AAt?$AAo?$AAo?$AAl?$AAs?$AA?2?$AAc?$AAr?$AAt?$AA_?$AAb?$AAl?$AAd?$AA?2?$AAs?$AAe?$AAl?$AAf?$AA_?$AA6?$AA4?$AA_?$AAa?$AAm@ 0000000180061530     LIBCMTD:fileno.obj
 0002:000095a0       ??_C@_0DG@HCAFNIGK@f?3?2dd?2vctools?2crt_bld?2self_64_am@ 00000001800615a0     LIBCMTD:_getbuf.obj
 0002:000095e0       ??_C@_1GM@EDDLLPPP@?$AAf?$AA?3?$AA?2?$AAd?$AAd?$AA?2?$AAv?$AAc?$AAt?$AAo?$AAo?$AAl?$AAs?$AA?2?$AAc?$AAr?$AAt?$AA_?$AAb?$AAl?$AAd?$AA?2?$AAs?$AAe?$AAl?$AAf?$AA_?$AA6?$AA4?$AA_?$AAa?$AAm@ 00000001800615e0     LIBCMTD:_getbuf.obj
 0002:00009650       ??_C@_1BA@IIKEPOGH@?$AA_?$AAf?$AAi?$AAl?$AAb?$AAu?$AAf?$AA?$AA@ 0000000180061650     LIBCMTD:_filbuf.obj
 0002:00009660       ??_C@_1GM@FOKAPIIM@?$AAf?$AA?3?$AA?2?$AAd?$AAd?$AA?2?$AAv?$AAc?$AAt?$AAo?$AAo?$AAl?$AAs?$AA?2?$AAc?$AAr?$AAt?$AA_?$AAb?$AAl?$AAd?$AA?2?$AAs?$AAe?$AAl?$AAf?$AA_?$AA6?$AA4?$AA_?$AAa?$AAm@ 0000000180061660     LIBCMTD:_filbuf.obj
 0002:000096d0       ??_C@_1BE@DHFIIAMO@?$AA_?$AAf?$AAt?$AAe?$AAl?$AAl?$AAi?$AA6?$AA4?$AA?$AA@ 00000001800616d0     LIBCMTD:ftelli64.obj
 0002:000096f0       ??_C@_1GO@JBBBNCCB@?$AAf?$AA?3?$AA?2?$AAd?$AAd?$AA?2?$AAv?$AAc?$AAt?$AAo?$AAo?$AAl?$AAs?$AA?2?$AAc?$AAr?$AAt?$AA_?$AAb?$AAl?$AAd?$AA?2?$AAs?$AAe?$AAl?$AAf?$AA_?$AA6?$AA4?$AA_?$AAa?$AAm@ 00000001800616f0     LIBCMTD:ftelli64.obj
 0002:00009760       ??_C@_1BE@KHFBJMNM@?$AA_?$AAl?$AAs?$AAe?$AAe?$AAk?$AAi?$AA6?$AA4?$AA?$AA@ 0000000180061760     LIBCMTD:lseeki64.obj
 0002:00009780       ??_C@_1GO@FPPADPCM@?$AAf?$AA?3?$AA?2?$AAd?$AAd?$AA?2?$AAv?$AAc?$AAt?$AAo?$AAo?$AAl?$AAs?$AA?2?$AAc?$AAr?$AAt?$AA_?$AAb?$AAl?$AAd?$AA?2?$AAs?$AAe?$AAl?$AAf?$AA_?$AA6?$AA4?$AA_?$AAa?$AAm@ 0000000180061780     LIBCMTD:lseeki64.obj
 0002:000097f0       ??_C@_1GO@JLKGNODO@?$AAf?$AA?3?$AA?2?$AAd?$AAd?$AA?2?$AAv?$AAc?$AAt?$AAo?$AAo?$AAl?$AAs?$AA?2?$AAc?$AAr?$AAt?$AA_?$AAb?$AAl?$AAd?$AA?2?$AAs?$AAe?$AAl?$AAf?$AA_?$AA6?$AA4?$AA_?$AAa?$AAm@ 00000001800617f0     LIBCMTD:_freebuf.obj
 0002:00009860       ??_C@_1BO@KIJENGPH@?$AAs?$AAt?$AAr?$AAe?$AAa?$AAm?$AA?5?$AA?$CB?$AA?$DN?$AA?5?$AAN?$AAU?$AAL?$AAL?$AA?$AA@ 0000000180061860     LIBCMTD:_freebuf.obj
 0002:00009880       ??_C@_1DG@LNNHNFHJ@?$AA?$CI?$AA_?$AAo?$AAs?$AAf?$AAi?$AAl?$AAe?$AA?$CI?$AAf?$AAi?$AAl?$AAe?$AAd?$AAe?$AAs?$AA?$CJ?$AA?5?$AA?$CG?$AA?5?$AAF?$AAO?$AAP?$AAE?$AAN?$AA?$CJ?$AA?$AA@ 0000000180061880     LIBCMTD:commit.obj
 0002:000098b8       ??_C@_1BA@FLNMBBIM@?$AA_?$AAc?$AAo?$AAm?$AAm?$AAi?$AAt?$AA?$AA@ 00000001800618b8     LIBCMTD:commit.obj
 0002:000098d0       ??_C@_1GK@HAHPFOGJ@?$AAf?$AA?3?$AA?2?$AAd?$AAd?$AA?2?$AAv?$AAc?$AAt?$AAo?$AAo?$AAl?$AAs?$AA?2?$AAc?$AAr?$AAt?$AA_?$AAb?$AAl?$AAd?$AA?2?$AAs?$AAe?$AAl?$AAf?$AA_?$AA6?$AA4?$AA_?$AAa?$AAm@ 00000001800618d0     LIBCMTD:commit.obj
 0002:00009940       ??_C@_1HC@KFLBHHBC@?$AA?$CI?$AAf?$AAi?$AAl?$AAe?$AAd?$AAe?$AAs?$AA?5?$AA?$DO?$AA?$DN?$AA?5?$AA0?$AA?5?$AA?$CG?$AA?$CG?$AA?5?$AA?$CI?$AAu?$AAn?$AAs?$AAi?$AAg?$AAn?$AAe?$AAd?$AA?$CJ?$AAf?$AAi?$AAl?$AAe?$AAd@ 0000000180061940     LIBCMTD:commit.obj
 0002:000099c0       ??_C@_1IA@CLCNOEMA@?$AAf?$AA?3?$AA?2?$AAd?$AAd?$AA?2?$AAv?$AAc?$AAt?$AAo?$AAo?$AAl?$AAs?$AA?2?$AAc?$AAr?$AAt?$AA_?$AAb?$AAl?$AAd?$AA?2?$AAs?$AAe?$AAl?$AAf?$AA_?$AA6?$AA4?$AA_?$AAa?$AAm@ 00000001800619c0     LIBCMTD:typname.obj
 0002:00009a40       ??_C@_1CK@GELGGBDK@?$AAp?$AAN?$AAo?$AAd?$AAe?$AA?9?$AA?$DO?$AA_?$AAN?$AAe?$AAx?$AAt?$AA?5?$AA?$CB?$AA?$DN?$AA?5?$AAN?$AAU?$AAL?$AAL?$AA?$AA@ 0000000180061a40     LIBCMTD:typname.obj
 0002:00009a70       ??_C@_1DM@MADKGDLO@?$AA?$CI?$AAL?$AA?$CC?$AAB?$AAu?$AAf?$AAf?$AAe?$AAr?$AA?5?$AAi?$AAs?$AA?5?$AAt?$AAo?$AAo?$AA?5?$AAs?$AAm?$AAa?$AAl?$AAl?$AA?$CC?$AA?5?$AA?$CG?$AA?$CG?$AA?5?$AA0?$AA?$CJ?$AA?$AA@ 0000000180061a70     LIBCMTD:strcpy_s.obj
 0002:00009ab0       ??_C@_1CI@HCPHDDLE@?$AAB?$AAu?$AAf?$AAf?$AAe?$AAr?$AA?5?$AAi?$AAs?$AA?5?$AAt?$AAo?$AAo?$AA?5?$AAs?$AAm?$AAa?$AAl?$AAl?$AA?$AA@ 0000000180061ab0     LIBCMTD:strcpy_s.obj
 0002:00009ad8       ??_C@_1CG@OFBJMIGJ@?$AA?$CI?$AA?$CI?$AA?$CI?$AA_?$AAS?$AAr?$AAc?$AA?$CJ?$AA?$CJ?$AA?$CJ?$AA?5?$AA?$CB?$AA?$DN?$AA?5?$AAN?$AAU?$AAL?$AAL?$AA?$AA@ 0000000180061ad8     LIBCMTD:strcpy_s.obj
 0002:00009b00       ??_C@_1BC@CFJEPFGF@?$AAs?$AAt?$AAr?$AAc?$AAp?$AAy?$AA_?$AAs?$AA?$AA@ 0000000180061b00     LIBCMTD:strcpy_s.obj
 0002:00009b20       ??_C@_1HC@HEGDJOLJ@?$AAf?$AA?3?$AA?2?$AAd?$AAd?$AA?2?$AAv?$AAc?$AAt?$AAo?$AAo?$AAl?$AAs?$AA?2?$AAc?$AAr?$AAt?$AA_?$AAb?$AAl?$AAd?$AA?2?$AAs?$AAe?$AAl?$AAf?$AA_?$AA6?$AA4?$AA_?$AAa?$AAm@ 0000000180061b20     LIBCMTD:strcpy_s.obj
 0002:00009ba0       ??_C@_1FC@NCPEPIBI@?$AA?$CI?$AA?$CI?$AA_?$AAD?$AAs?$AAt?$AA?$CJ?$AA?$CJ?$AA?5?$AA?$CB?$AA?$DN?$AA?5?$AAN?$AAU?$AAL?$AAL?$AA?5?$AA?$CG?$AA?$CG?$AA?5?$AA?$CI?$AA?$CI?$AA_?$AAS?$AAi?$AAz?$AAe?$AAI?$AAn?$AAB?$AAy?$AAt@ 0000000180061ba0     LIBCMTD:strcpy_s.obj
 0002:00009bf8       ??_C@_1O@EDEJGJBM@?$AA_?$AAc?$AAl?$AAo?$AAs?$AAe?$AA?$AA@ 0000000180061bf8     LIBCMTD:close.obj
 0002:00009c10       ??_C@_1GI@EOCMABI@?$AAf?$AA?3?$AA?2?$AAd?$AAd?$AA?2?$AAv?$AAc?$AAt?$AAo?$AAo?$AAl?$AAs?$AA?2?$AAc?$AAr?$AAt?$AA_?$AAb?$AAl?$AAd?$AA?2?$AAs?$AAe?$AAl?$AAf?$AA_?$AA6?$AA4?$AA_?$AAa?$AAm@ 0000000180061c10     LIBCMTD:close.obj
 0002:00009c80       ??_C@_1GM@CBJEPOJA@?$AAf?$AA?3?$AA?2?$AAd?$AAd?$AA?2?$AAv?$AAc?$AAt?$AAo?$AAo?$AAl?$AAs?$AA?2?$AAc?$AAr?$AAt?$AA_?$AAb?$AAl?$AAd?$AA?2?$AAs?$AAe?$AAl?$AAf?$AA_?$AA6?$AA4?$AA_?$AAa?$AAm@ 0000000180061c80     LIBCMTD:dbgrptt.obj
 0002:00009cf0       ??_C@_1MC@IGEECMDB@?$AAw?$AAc?$AAs?$AAc?$AAp?$AAy?$AA_?$AAs?$AA?$CI?$AAs?$AAz?$AAO?$AAu?$AAt?$AAM?$AAe?$AAs?$AAs?$AAa?$AAg?$AAe?$AA2?$AA?0?$AA?5?$AA4?$AA0?$AA9?$AA6?$AA?0?$AA?5?$AAL?$AA?$CC@ 0000000180061cf0     LIBCMTD:dbgrptt.obj
 0002:00009dc0       ??_C@_1HO@PJOFIKFE@?$AA_?$AAC?$AAr?$AAt?$AAD?$AAb?$AAg?$AAR?$AAe?$AAp?$AAo?$AAr?$AAt?$AA?3?$AA?5?$AAS?$AAt?$AAr?$AAi?$AAn?$AAg?$AA?5?$AAt?$AAo?$AAo?$AA?5?$AAl?$AAo?$AAn?$AAg?$AA?5?$AAo@ 0000000180061dc0     LIBCMTD:dbgrptt.obj
 0002:00009e40       ??_C@_1IM@OOKIFKOH@?$AAe?$AA?5?$AA?$DN?$AA?5?$AAm?$AAb?$AAs?$AAt?$AAo?$AAw?$AAc?$AAs?$AA_?$AAs?$AA?$CI?$AA?$CG?$AAr?$AAe?$AAt?$AA?0?$AA?5?$AAs?$AAz?$AAO?$AAu?$AAt?$AAM?$AAe?$AAs?$AAs?$AAa?$AAg@ 0000000180061e40     LIBCMTD:dbgrptt.obj
 0002:00009ed0       ??_C@_1FI@IBIOIHEG@?$AAs?$AAt?$AAr?$AAc?$AAp?$AAy?$AA_?$AAs?$AA?$CI?$AAs?$AAz?$AAO?$AAu?$AAt?$AAM?$AAe?$AAs?$AAs?$AAa?$AAg?$AAe?$AA?0?$AA?5?$AA4?$AA0?$AA9?$AA6?$AA?0?$AA?5?$AAs?$AAz?$AAL@ 0000000180061ed0     LIBCMTD:dbgrptt.obj
 0002:00009f30       ??_C@_1JG@CPKCIOEE@?$AAs?$AAt?$AAr?$AAc?$AAp?$AAy?$AA_?$AAs?$AA?$CI?$AAs?$AAz?$AAO?$AAu?$AAt?$AAM?$AAe?$AAs?$AAs?$AAa?$AAg?$AAe?$AA?0?$AA?5?$AA4?$AA0?$AA9?$AA6?$AA?0?$AA?5?$AA?$CC?$AA_?$AAC@ 0000000180061f30     LIBCMTD:dbgrptt.obj
 0002:00009fc8       ??_C@_0M@IPILFDFN@?$CFs?$CI?$CFd?$CJ?5?3?5?$CFs?$AA@ 0000000180061fc8     LIBCMTD:dbgrptt.obj
 0002:00009fe0       ??_C@_1EI@LDHJEDO@?$AAs?$AAt?$AAr?$AAc?$AAa?$AAt?$AA_?$AAs?$AA?$CI?$AAs?$AAz?$AAL?$AAi?$AAn?$AAe?$AAM?$AAe?$AAs?$AAs?$AAa?$AAg?$AAe?$AA?0?$AA?5?$AA4?$AA0?$AA9?$AA6?$AA?0?$AA?5?$AA?$CC?$AA?2@ 0000000180061fe0     LIBCMTD:dbgrptt.obj
 0002:0000a030       ??_C@_1EI@CACDLAFK@?$AAs?$AAt?$AAr?$AAc?$AAa?$AAt?$AA_?$AAs?$AA?$CI?$AAs?$AAz?$AAL?$AAi?$AAn?$AAe?$AAM?$AAe?$AAs?$AAs?$AAa?$AAg?$AAe?$AA?0?$AA?5?$AA4?$AA0?$AA9?$AA6?$AA?0?$AA?5?$AA?$CC?$AA?2@ 0000000180062030     LIBCMTD:dbgrptt.obj
 0002:0000a078       ??_C@_01LIIJDEN@?$AN?$AA@  0000000180062078     LIBCMTD:dbgrptt.obj
 0002:0000a080       ??_C@_1FK@NPGBPOFO@?$AAs?$AAt?$AAr?$AAc?$AAa?$AAt?$AA_?$AAs?$AA?$CI?$AAs?$AAz?$AAL?$AAi?$AAn?$AAe?$AAM?$AAe?$AAs?$AAs?$AAa?$AAg?$AAe?$AA?0?$AA?5?$AA4?$AA0?$AA9?$AA6?$AA?0?$AA?5?$AAs?$AAz@ 0000000180062080     LIBCMTD:dbgrptt.obj
 0002:0000a0e0       ??_C@_1KK@GIGAEDMO@?$AAs?$AAt?$AAr?$AAc?$AAp?$AAy?$AA_?$AAs?$AA?$CI?$AAs?$AAz?$AAL?$AAi?$AAn?$AAe?$AAM?$AAe?$AAs?$AAs?$AAa?$AAg?$AAe?$AA?0?$AA?5?$AA4?$AA0?$AA9?$AA6?$AA?0?$AA?5?$AAs?$AAz@ 00000001800620e0     LIBCMTD:dbgrptt.obj
 0002:0000a190       ??_C@_0BC@LAIDCHCH@Assertion?5failed?$CB?$AA@ 0000000180062190     LIBCMTD:dbgrptt.obj
 0002:0000a1a8       ??_C@_0BD@CAENFOHP@Assertion?5failed?3?5?$AA@ 00000001800621a8     LIBCMTD:dbgrptt.obj
 0002:0000a1c0       ??_C@_1JI@GAALPGBM@?$AAs?$AAt?$AAr?$AAc?$AAp?$AAy?$AA_?$AAs?$AA?$CI?$AAs?$AAz?$AAU?$AAs?$AAe?$AAr?$AAM?$AAe?$AAs?$AAs?$AAa?$AAg?$AAe?$AA?0?$AA?5?$AA4?$AA0?$AA9?$AA6?$AA?0?$AA?5?$AA?$CC?$AA_@ 00000001800621c0     LIBCMTD:dbgrptt.obj
 0002:0000a258       ??_C@_0CL@EACFGMNB@_CrtDbgReport?3?5String?5too?5long?5o@ 0000000180062258     LIBCMTD:dbgrptt.obj
 0002:0000a284       ??_C@_01EEMJAFIK@?6?$AA@   0000000180062284     LIBCMTD:dbgrptt.obj
 0002:0000a288       ??_C@_07BHGABMGB@?0?5Line?5?$AA@ 0000000180062288     LIBCMTD:dbgrptt.obj
 0002:0000a290       ??_C@_0P@DFJNDPOP@?$DMfile?5unknown?$DO?$AA@ 0000000180062290     LIBCMTD:dbgrptt.obj
 0002:0000a2a0       ??_C@_0CG@BNGLOCEO@Second?5Chance?5Assertion?5Failed?3?5@ 00000001800622a0     LIBCMTD:dbgrptt.obj
 0002:0000a2d0       ??_C@_1FA@JPHJBHEM@?$AA_?$AAi?$AAt?$AAo?$AAa?$AA_?$AAs?$AA?$CI?$AAn?$AAL?$AAi?$AAn?$AAe?$AA?0?$AA?5?$AAs?$AAz?$AAL?$AAi?$AAn?$AAe?$AAM?$AAe?$AAs?$AAs?$AAa?$AAg?$AAe?$AA?0?$AA?5?$AA4?$AA0@ 00000001800622d0     LIBCMTD:dbgrptt.obj
 0002:0000a320       ??_C@_1CA@KHJHLKA@?$AA_?$AAV?$AAC?$AAr?$AAt?$AAD?$AAb?$AAg?$AAR?$AAe?$AAp?$AAo?$AAr?$AAt?$AAA?$AA?$AA@ 0000000180062320     LIBCMTD:dbgrptt.obj
 0002:0000a340       ??_C@_1IE@CPGKIAGP@?$AAw?$AAc?$AAs?$AAt?$AAo?$AAm?$AAb?$AAs?$AA_?$AAs?$AA?$CI?$AA?$CG?$AAr?$AAe?$AAt?$AA?0?$AA?5?$AAs?$AAz?$AAa?$AAO?$AAu?$AAt?$AAM?$AAe?$AAs?$AAs?$AAa?$AAg?$AAe?$AA?0?$AA?5@ 0000000180062340     LIBCMTD:dbgrptt.obj
 0002:0000a3d0       ??_C@_1MA@LBAMNNOB@?$AAs?$AAt?$AAr?$AAc?$AAp?$AAy?$AA_?$AAs?$AA?$CI?$AAs?$AAz?$AAO?$AAu?$AAt?$AAM?$AAe?$AAs?$AAs?$AAa?$AAg?$AAe?$AA2?$AA?0?$AA?5?$AA4?$AA0?$AA9?$AA6?$AA?0?$AA?5?$AA?$CC?$AA_@ 00000001800623d0     LIBCMTD:dbgrptt.obj
 0002:0000a490       ??_C@_0DP@GNPEPHJD@_CrtDbgReport?3?5String?5too?5long?5o@ 0000000180062490     LIBCMTD:dbgrptt.obj
 0002:0000a4d0       ??_C@_1JC@EOAPFDLN@?$AAw?$AAc?$AAs?$AAt?$AAo?$AAm?$AAb?$AAs?$AA_?$AAs?$AA?$CI?$AA?$CI?$AA?$CI?$AAv?$AAo?$AAi?$AAd?$AA?5?$AA?$CK?$AA?$CJ?$AA0?$AA?$CJ?$AA?0?$AA?5?$AAs?$AAz?$AAO?$AAu?$AAt?$AAM?$AAe?$AAs@ 00000001800624d0     LIBCMTD:dbgrptt.obj
 0002:0000a570       ??_C@_1FI@DBAIJPJE@?$AAw?$AAc?$AAs?$AAc?$AAp?$AAy?$AA_?$AAs?$AA?$CI?$AAs?$AAz?$AAO?$AAu?$AAt?$AAM?$AAe?$AAs?$AAs?$AAa?$AAg?$AAe?$AA?0?$AA?5?$AA4?$AA0?$AA9?$AA6?$AA?0?$AA?5?$AAs?$AAz?$AAL@ 0000000180062570     LIBCMTD:dbgrptt.obj
 0002:0000a5c8       ??_C@_1BI@JIDBEPIG@?$AA?$CF?$AAs?$AA?$CI?$AA?$CF?$AAd?$AA?$CJ?$AA?5?$AA?3?$AA?5?$AA?$CF?$AAs?$AA?$AA@ 00000001800625c8     LIBCMTD:dbgrptt.obj
 0002:0000a5e0       ??_C@_1EK@PHCBEDKB@?$AAw?$AAc?$AAs?$AAc?$AAa?$AAt?$AA_?$AAs?$AA?$CI?$AAs?$AAz?$AAL?$AAi?$AAn?$AAe?$AAM?$AAe?$AAs?$AAs?$AAa?$AAg?$AAe?$AA?0?$AA?5?$AA4?$AA0?$AA9?$AA6?$AA?0?$AA?5?$AAL?$AA?$CC@ 00000001800625e0     LIBCMTD:dbgrptt.obj
 0002:0000a630       ??_C@_1EK@NMDFGHMF@?$AAw?$AAc?$AAs?$AAc?$AAa?$AAt?$AA_?$AAs?$AA?$CI?$AAs?$AAz?$AAL?$AAi?$AAn?$AAe?$AAM?$AAe?$AAs?$AAs?$AAa?$AAg?$AAe?$AA?0?$AA?5?$AA4?$AA0?$AA9?$AA6?$AA?0?$AA?5?$AAL?$AA?$CC@ 0000000180062630     LIBCMTD:dbgrptt.obj
 0002:0000a67c       ??_C@_13CMNBPIDO@?$AA?$AN?$AA?$AA@ 000000018006267c     LIBCMTD:dbgrptt.obj
 0002:0000a680       ??_C@_1FK@HPADHBBD@?$AAw?$AAc?$AAs?$AAc?$AAa?$AAt?$AA_?$AAs?$AA?$CI?$AAs?$AAz?$AAL?$AAi?$AAn?$AAe?$AAM?$AAe?$AAs?$AAs?$AAa?$AAg?$AAe?$AA?0?$AA?5?$AA4?$AA0?$AA9?$AA6?$AA?0?$AA?5?$AAs?$AAz@ 0000000180062680     LIBCMTD:dbgrptt.obj
 0002:0000a6e0       ??_C@_1KO@DGAHENCH@?$AAw?$AAc?$AAs?$AAc?$AAp?$AAy?$AA_?$AAs?$AA?$CI?$AAs?$AAz?$AAL?$AAi?$AAn?$AAe?$AAM?$AAe?$AAs?$AAs?$AAa?$AAg?$AAe?$AA?0?$AA?5?$AA4?$AA0?$AA9?$AA6?$AA?0?$AA?5?$AAs?$AAz@ 00000001800626e0     LIBCMTD:dbgrptt.obj
 0002:0000a790       ??_C@_1CG@FFFGGODN@?$AAA?$AAs?$AAs?$AAe?$AAr?$AAt?$AAi?$AAo?$AAn?$AA?5?$AAf?$AAa?$AAi?$AAl?$AAe?$AAd?$AA?3?$AA?5?$AA?$AA@ 0000000180062790     LIBCMTD:dbgrptt.obj
 0002:0000a7c0       ??_C@_1JK@KHFABAEO@?$AAw?$AAc?$AAs?$AAc?$AAp?$AAy?$AA_?$AAs?$AA?$CI?$AAs?$AAz?$AAU?$AAs?$AAe?$AAr?$AAM?$AAe?$AAs?$AAs?$AAa?$AAg?$AAe?$AA?0?$AA?5?$AA4?$AA0?$AA9?$AA6?$AA?0?$AA?5?$AAL?$AA?$CC@ 00000001800627c0     LIBCMTD:dbgrptt.obj
 0002:0000a860       ??_C@_1BA@ELMMDCFC@?$AA?0?$AA?5?$AAL?$AAi?$AAn?$AAe?$AA?5?$AA?$AA@ 0000000180062860     LIBCMTD:dbgrptt.obj
 0002:0000a870       ??_C@_1BO@OCHMLCAG@?$AA?$DM?$AAf?$AAi?$AAl?$AAe?$AA?5?$AAu?$AAn?$AAk?$AAn?$AAo?$AAw?$AAn?$AA?$DO?$AA?$AA@ 0000000180062870     LIBCMTD:dbgrptt.obj
 0002:0000a890       ??_C@_1EM@MJFLEDMB@?$AAS?$AAe?$AAc?$AAo?$AAn?$AAd?$AA?5?$AAC?$AAh?$AAa?$AAn?$AAc?$AAe?$AA?5?$AAA?$AAs?$AAs?$AAe?$AAr?$AAt?$AAi?$AAo?$AAn?$AA?5?$AAF?$AAa?$AAi?$AAl?$AAe?$AAd?$AA?3?$AA?5@ 0000000180062890     LIBCMTD:dbgrptt.obj
 0002:0000a8e0       ??_C@_1FA@CNLLOMHI@?$AA_?$AAi?$AAt?$AAo?$AAw?$AA_?$AAs?$AA?$CI?$AAn?$AAL?$AAi?$AAn?$AAe?$AA?0?$AA?5?$AAs?$AAz?$AAL?$AAi?$AAn?$AAe?$AAM?$AAe?$AAs?$AAs?$AAa?$AAg?$AAe?$AA?0?$AA?5?$AA4?$AA0@ 00000001800628e0     LIBCMTD:dbgrptt.obj
 0002:0000a930       ??_C@_1CA@HPALHDOD@?$AA_?$AAV?$AAC?$AAr?$AAt?$AAD?$AAb?$AAg?$AAR?$AAe?$AAp?$AAo?$AAr?$AAt?$AAW?$AA?$AA@ 0000000180062930     LIBCMTD:dbgrptt.obj
 0002:0000a950       ??_C@_0BI@DFKBFLJE@GetProcessWindowStation?$AA@ 0000000180062950     LIBCMTD:crtmboxw.obj
 0002:0000a968       ??_C@_0BK@DEKFELLI@GetUserObjectInformationW?$AA@ 0000000180062968     LIBCMTD:crtmboxw.obj
 0002:0000a988       ??_C@_0BD@HHGDFDBJ@GetLastActivePopup?$AA@ 0000000180062988     LIBCMTD:crtmboxw.obj
 0002:0000a9a0       ??_C@_0BA@HNOPNCHB@GetActiveWindow?$AA@ 00000001800629a0     LIBCMTD:crtmboxw.obj
 0002:0000a9b0       ??_C@_0M@DLDCCGNP@MessageBoxW?$AA@ 00000001800629b0     LIBCMTD:crtmboxw.obj
 0002:0000a9c0       ??_C@_1BG@GOEBHBDC@?$AAU?$AAS?$AAE?$AAR?$AA3?$AA2?$AA?4?$AAD?$AAL?$AAL?$AA?$AA@ 00000001800629c0     LIBCMTD:crtmboxw.obj
 0002:0000a9d8       ??_C@_1BC@KIONAFPO@?$AAw?$AAc?$AAs?$AAc?$AAp?$AAy?$AA_?$AAs?$AA?$AA@ 00000001800629d8     LIBCMTD:wcscpy_s.obj
 0002:0000a9f0       ??_C@_1FC@PFMLEHKI@?$AA?$CI?$AA?$CI?$AA_?$AAD?$AAs?$AAt?$AA?$CJ?$AA?$CJ?$AA?5?$AA?$CB?$AA?$DN?$AA?5?$AAN?$AAU?$AAL?$AAL?$AA?5?$AA?$CG?$AA?$CG?$AA?5?$AA?$CI?$AA?$CI?$AA_?$AAS?$AAi?$AAz?$AAe?$AAI?$AAn?$AAW?$AAo?$AAr@ 00000001800629f0     LIBCMTD:wcscpy_s.obj
 0002:0000aa44       ??_C@_03KHICJKCI@?4?4?4?$AA@ 0000000180062a44     LIBCMTD:dbgrpt.obj
 0002:0000aa48       ??_C@_0BB@NAGLCMLI@Assertion?5Failed?$AA@ 0000000180062a48     LIBCMTD:dbgrpt.obj
 0002:0000aa5c       ??_C@_05NAOIJFC@Error?$AA@ 0000000180062a5c     LIBCMTD:dbgrpt.obj
 0002:0000aa68       ??_C@_07KGMMFLDN@Warning?$AA@ 0000000180062a68     LIBCMTD:dbgrpt.obj
 0002:0000aa88       ??_C@_0CD@EBCGLDDL@Microsoft?5Visual?5C?$CL?$CL?5Debug?5Libra@ 0000000180062a88     LIBCMTD:dbgrpt.obj
 0002:0000aab0       ??_C@_0FF@CCONDJCB@Debug?5?$CFs?$CB?6?6Program?3?5?$CFs?$CFs?$CFs?$CFs?$CFs?$CFs@ 0000000180062ab0     LIBCMTD:dbgrpt.obj
 0002:0000ab08       ??_C@_09OFBFHMBK@?6Module?3?5?$AA@ 0000000180062b08     LIBCMTD:dbgrpt.obj
 0002:0000ab18       ??_C@_07OPHPPLBG@?6File?3?5?$AA@ 0000000180062b18     LIBCMTD:dbgrpt.obj
 0002:0000ab20       ??_C@_07DBMPPHDI@?6Line?3?5?$AA@ 0000000180062b20     LIBCMTD:dbgrpt.obj
 0002:0000ab28       ??_C@_02PHMGELLB@?6?6?$AA@ 0000000180062b28     LIBCMTD:dbgrpt.obj
 0002:0000ab30       ??_C@_0N@MEECIJGN@Expression?3?5?$AA@ 0000000180062b30     LIBCMTD:dbgrpt.obj
 0002:0000ab40       ??_C@_0HD@GNBNFCCL@?6?6For?5information?5on?5how?5your?5pr@ 0000000180062b40     LIBCMTD:dbgrpt.obj
 0002:0000abc0       ??_C@_1GG@DLDHOIGE@?$AAs?$AAt?$AAr?$AAc?$AAp?$AAy?$AA_?$AAs?$AA?$CI?$AAs?$AAz?$AAE?$AAx?$AAe?$AAN?$AAa?$AAm?$AAe?$AA?0?$AA?5?$AA2?$AA6?$AA0?$AA?0?$AA?5?$AA?$CC?$AA?$DM?$AAp?$AAr?$AAo?$AAg?$AAr@ 0000000180062bc0     LIBCMTD:dbgrpt.obj
 0002:0000ac28       ??_C@_1CI@IDOKFLAJ@?$AA_?$AA_?$AAc?$AAr?$AAt?$AAM?$AAe?$AAs?$AAs?$AAa?$AAg?$AAe?$AAW?$AAi?$AAn?$AAd?$AAo?$AAw?$AAA?$AA?$AA@ 0000000180062c28     LIBCMTD:dbgrpt.obj
 0002:0000ac50       ??_C@_0BH@DNAGHKFM@?$DMprogram?5name?5unknown?$DO?$AA@ 0000000180062c50     LIBCMTD:dbgrpt.obj
 0002:0000ac68       ??_C@_1BK@JMCGJOCC@?$AA_?$AAe?$AAx?$AAp?$AAa?$AAn?$AAd?$AA_?$AAb?$AAa?$AAs?$AAe?$AA?$AA@ 0000000180062c68     LIBCMTD:expand.obj
 0002:0000ac90       ??_C@_1GK@CPPIAPOD@?$AAf?$AA?3?$AA?2?$AAd?$AAd?$AA?2?$AAv?$AAc?$AAt?$AAo?$AAo?$AAl?$AAs?$AA?2?$AAc?$AAr?$AAt?$AA_?$AAb?$AAl?$AAd?$AA?2?$AAs?$AAe?$AAl?$AAf?$AA_?$AA6?$AA4?$AA_?$AAa?$AAm@ 0000000180062c90     LIBCMTD:expand.obj
 0002:0000ad00       ??_C@_1BO@KFIJIAEA@?$AAp?$AAB?$AAl?$AAo?$AAc?$AAk?$AA?5?$AA?$CB?$AA?$DN?$AA?5?$AAN?$AAU?$AAL?$AAL?$AA?$AA@ 0000000180062d00     LIBCMTD:expand.obj
 0002:0000ad20       ??_C@_1GO@OLCKHDCC@?$AAf?$AA?3?$AA?2?$AAd?$AAd?$AA?2?$AAv?$AAc?$AAt?$AAo?$AAo?$AAl?$AAs?$AA?2?$AAc?$AAr?$AAt?$AA_?$AAb?$AAl?$AAd?$AA?2?$AAs?$AAe?$AAl?$AAf?$AA_?$AA6?$AA4?$AA_?$AAa?$AAm@ 0000000180062d20     LIBCMTD:localref.obj
 0002:0000ad90       ??_C@_1BKC@GGIENNAK@?$AA?$CI?$AA?$CI?$AAp?$AAt?$AAl?$AAo?$AAc?$AAi?$AA?9?$AA?$DO?$AAl?$AAc?$AA_?$AAc?$AAa?$AAt?$AAe?$AAg?$AAo?$AAr?$AAy?$AA?$FL?$AAc?$AAa?$AAt?$AAe?$AAg?$AAo?$AAr?$AAy?$AA?$FN?$AA?4@ 0000000180062d90     LIBCMTD:localref.obj
 0002:0000af38       ??_C@_1BC@GDGBMEMK@?$AAH?$AAH?$AA?3?$AAm?$AAm?$AA?3?$AAs?$AAs?$AA?$AA@ 0000000180062f38     LIBCMTD:nlsdata2.obj
 0002:0000af50       ??_C@_1CI@KNAKOEBC@?$AAd?$AAd?$AAd?$AAd?$AA?0?$AA?5?$AAM?$AAM?$AAM?$AAM?$AA?5?$AAd?$AAd?$AA?0?$AA?5?$AAy?$AAy?$AAy?$AAy?$AA?$AA@ 0000000180062f50     LIBCMTD:nlsdata2.obj
 0002:0000af78       ??_C@_1BC@IEBCMHCM@?$AAM?$AAM?$AA?1?$AAd?$AAd?$AA?1?$AAy?$AAy?$AA?$AA@ 0000000180062f78     LIBCMTD:nlsdata2.obj
 0002:0000af8c       ??_C@_15CLMNNGEL@?$AAP?$AAM?$AA?$AA@ 0000000180062f8c     LIBCMTD:nlsdata2.obj
 0002:0000af94       ??_C@_15ODEHAHHF@?$AAA?$AAM?$AA?$AA@ 0000000180062f94     LIBCMTD:nlsdata2.obj
 0002:0000afa0       ??_C@_1BC@FEMKIFH@?$AAD?$AAe?$AAc?$AAe?$AAm?$AAb?$AAe?$AAr?$AA?$AA@ 0000000180062fa0     LIBCMTD:nlsdata2.obj
 0002:0000afb8       ??_C@_1BC@BGLIFPF@?$AAN?$AAo?$AAv?$AAe?$AAm?$AAb?$AAe?$AAr?$AA?$AA@ 0000000180062fb8     LIBCMTD:nlsdata2.obj
 0002:0000afd0       ??_C@_1BA@EPANDLNG@?$AAO?$AAc?$AAt?$AAo?$AAb?$AAe?$AAr?$AA?$AA@ 0000000180062fd0     LIBCMTD:nlsdata2.obj
 0002:0000afe0       ??_C@_1BE@DKAAMBJL@?$AAS?$AAe?$AAp?$AAt?$AAe?$AAm?$AAb?$AAe?$AAr?$AA?$AA@ 0000000180062fe0     LIBCMTD:nlsdata2.obj
 0002:0000aff8       ??_C@_1O@PAHLKOAC@?$AAA?$AAu?$AAg?$AAu?$AAs?$AAt?$AA?$AA@ 0000000180062ff8     LIBCMTD:nlsdata2.obj
 0002:0000b008       ??_C@_19BIFMLPCD@?$AAJ?$AAu?$AAl?$AAy?$AA?$AA@ 0000000180063008     LIBCMTD:nlsdata2.obj
 0002:0000b018       ??_C@_19EPFLPGAP@?$AAJ?$AAu?$AAn?$AAe?$AA?$AA@ 0000000180063018     LIBCMTD:nlsdata2.obj
 0002:0000b028       ??_C@_1M@GJNLMHFD@?$AAA?$AAp?$AAr?$AAi?$AAl?$AA?$AA@ 0000000180063028     LIBCMTD:nlsdata2.obj
 0002:0000b038       ??_C@_1M@IKEENEDF@?$AAM?$AAa?$AAr?$AAc?$AAh?$AA?$AA@ 0000000180063038     LIBCMTD:nlsdata2.obj
 0002:0000b048       ??_C@_1BC@JGDDFFAM@?$AAF?$AAe?$AAb?$AAr?$AAu?$AAa?$AAr?$AAy?$AA?$AA@ 0000000180063048     LIBCMTD:nlsdata2.obj
 0002:0000b060       ??_C@_1BA@EFMEIEBA@?$AAJ?$AAa?$AAn?$AAu?$AAa?$AAr?$AAy?$AA?$AA@ 0000000180063060     LIBCMTD:nlsdata2.obj
 0002:0000b070       ??_C@_17EGKACKIF@?$AAD?$AAe?$AAc?$AA?$AA@ 0000000180063070     LIBCMTD:nlsdata2.obj
 0002:0000b078       ??_C@_17BBDMLCIG@?$AAN?$AAo?$AAv?$AA?$AA@ 0000000180063078     LIBCMTD:nlsdata2.obj
 0002:0000b080       ??_C@_17FNLKOI@?$AAO?$AAc?$AAt?$AA?$AA@ 0000000180063080     LIBCMTD:nlsdata2.obj
 0002:0000b088       ??_C@_17HCHCOKMG@?$AAS?$AAe?$AAp?$AA?$AA@ 0000000180063088     LIBCMTD:nlsdata2.obj
 0002:0000b090       ??_C@_17ICPELBCN@?$AAA?$AAu?$AAg?$AA?$AA@ 0000000180063090     LIBCMTD:nlsdata2.obj
 0002:0000b098       ??_C@_17IJPCKHK@?$AAJ?$AAu?$AAl?$AA?$AA@ 0000000180063098     LIBCMTD:nlsdata2.obj
 0002:0000b0a0       ??_C@_17KCJGOCPB@?$AAJ?$AAu?$AAn?$AA?$AA@ 00000001800630a0     LIBCMTD:nlsdata2.obj
 0002:0000b0a8       ??_C@_17PNNKMEED@?$AAM?$AAa?$AAy?$AA?$AA@ 00000001800630a8     LIBCMTD:nlsdata2.obj
 0002:0000b0b0       ??_C@_17LFPOIHDD@?$AAA?$AAp?$AAr?$AA?$AA@ 00000001800630b0     LIBCMTD:nlsdata2.obj
 0002:0000b0b8       ??_C@_17CKNLEDEC@?$AAM?$AAa?$AAr?$AA?$AA@ 00000001800630b8     LIBCMTD:nlsdata2.obj
 0002:0000b0c0       ??_C@_17LMDJEKJN@?$AAF?$AAe?$AAb?$AA?$AA@ 00000001800630c0     LIBCMTD:nlsdata2.obj
 0002:0000b0c8       ??_C@_17DKNBKCHM@?$AAJ?$AAa?$AAn?$AA?$AA@ 00000001800630c8     LIBCMTD:nlsdata2.obj
 0002:0000b0d0       ??_C@_1BC@ENMNNPAJ@?$AAS?$AAa?$AAt?$AAu?$AAr?$AAd?$AAa?$AAy?$AA?$AA@ 00000001800630d0     LIBCMTD:nlsdata2.obj
 0002:0000b0e8       ??_C@_1O@PDICJHAG@?$AAF?$AAr?$AAi?$AAd?$AAa?$AAy?$AA?$AA@ 00000001800630e8     LIBCMTD:nlsdata2.obj
 0002:0000b0f8       ??_C@_1BC@HHMNLIHE@?$AAT?$AAh?$AAu?$AAr?$AAs?$AAd?$AAa?$AAy?$AA?$AA@ 00000001800630f8     LIBCMTD:nlsdata2.obj
 0002:0000b110       ??_C@_1BE@EBOGMDOH@?$AAW?$AAe?$AAd?$AAn?$AAe?$AAs?$AAd?$AAa?$AAy?$AA?$AA@ 0000000180063110     LIBCMTD:nlsdata2.obj
 0002:0000b128       ??_C@_1BA@ENFBFFEK@?$AAT?$AAu?$AAe?$AAs?$AAd?$AAa?$AAy?$AA?$AA@ 0000000180063128     LIBCMTD:nlsdata2.obj
 0002:0000b138       ??_C@_1O@MMNBFLIA@?$AAM?$AAo?$AAn?$AAd?$AAa?$AAy?$AA?$AA@ 0000000180063138     LIBCMTD:nlsdata2.obj
 0002:0000b148       ??_C@_1O@IHNHDHPB@?$AAS?$AAu?$AAn?$AAd?$AAa?$AAy?$AA?$AA@ 0000000180063148     LIBCMTD:nlsdata2.obj
 0002:0000b158       ??_C@_17GGIBDPIH@?$AAS?$AAa?$AAt?$AA?$AA@ 0000000180063158     LIBCMTD:nlsdata2.obj
 0002:0000b160       ??_C@_17HFOLPPLP@?$AAF?$AAr?$AAi?$AA?$AA@ 0000000180063160     LIBCMTD:nlsdata2.obj
 0002:0000b168       ??_C@_17PDPHAADD@?$AAT?$AAh?$AAu?$AA?$AA@ 0000000180063168     LIBCMTD:nlsdata2.obj
 0002:0000b170       ??_C@_17CJEDCEPE@?$AAW?$AAe?$AAd?$AA?$AA@ 0000000180063170     LIBCMTD:nlsdata2.obj
 0002:0000b178       ??_C@_17BMKGEGOJ@?$AAT?$AAu?$AAe?$AA?$AA@ 0000000180063178     LIBCMTD:nlsdata2.obj
 0002:0000b180       ??_C@_17KBOMKBF@?$AAM?$AAo?$AAn?$AA?$AA@ 0000000180063180     LIBCMTD:nlsdata2.obj
 0002:0000b188       ??_C@_17MBGCMIPB@?$AAS?$AAu?$AAn?$AA?$AA@ 0000000180063188     LIBCMTD:nlsdata2.obj
 0002:0000b190       ??_C@_08JCCMCCIL@HH?3mm?3ss?$AA@ 0000000180063190     LIBCMTD:nlsdata2.obj
 0002:0000b1a0       ??_C@_0BE@CKGJFCPC@dddd?0?5MMMM?5dd?0?5yyyy?$AA@ 00000001800631a0     LIBCMTD:nlsdata2.obj
 0002:0000b1b8       ??_C@_08BPBNCDIB@MM?1dd?1yy?$AA@ 00000001800631b8     LIBCMTD:nlsdata2.obj
 0002:0000b1c4       ??_C@_02CJNFDJBF@PM?$AA@   00000001800631c4     LIBCMTD:nlsdata2.obj
 0002:0000b1c8       ??_C@_02DEDBPAFC@AM?$AA@   00000001800631c8     LIBCMTD:nlsdata2.obj
 0002:0000b1d0       ??_C@_08EDHMEBNP@December?$AA@ 00000001800631d0     LIBCMTD:nlsdata2.obj
 0002:0000b1e0       ??_C@_08HCHEGEOA@November?$AA@ 00000001800631e0     LIBCMTD:nlsdata2.obj
 0002:0000b1f0       ??_C@_07JJNFCEND@October?$AA@ 00000001800631f0     LIBCMTD:nlsdata2.obj
 0002:0000b1f8       ??_C@_09BHHEALKD@September?$AA@ 00000001800631f8     LIBCMTD:nlsdata2.obj
 0002:0000b204       ??_C@_06LBBHFDDG@August?$AA@ 0000000180063204     LIBCMTD:nlsdata2.obj
 0002:0000b20c       ??_C@_04MIEPOIFP@July?$AA@ 000000018006320c     LIBCMTD:nlsdata2.obj
 0002:0000b214       ??_C@_04CNLMGBGM@June?$AA@ 0000000180063214     LIBCMTD:nlsdata2.obj
 0002:0000b21c       ??_C@_05DMJDNLEJ@April?$AA@ 000000018006321c     LIBCMTD:nlsdata2.obj
 0002:0000b224       ??_C@_05HPCKOFNC@March?$AA@ 0000000180063224     LIBCMTD:nlsdata2.obj
 0002:0000b230       ??_C@_08GNJGEPFN@February?$AA@ 0000000180063230     LIBCMTD:nlsdata2.obj
 0002:0000b240       ??_C@_07CGJPFGJA@January?$AA@ 0000000180063240     LIBCMTD:nlsdata2.obj
 0002:0000b248       ??_C@_03MKABNOCG@Dec?$AA@  0000000180063248     LIBCMTD:nlsdata2.obj
 0002:0000b24c       ??_C@_03JPJOFNIA@Nov?$AA@  000000018006324c     LIBCMTD:nlsdata2.obj
 0002:0000b250       ??_C@_03BMAOKBAD@Oct?$AA@  0000000180063250     LIBCMTD:nlsdata2.obj
 0002:0000b254       ??_C@_03GGCAPAJC@Sep?$AA@  0000000180063254     LIBCMTD:nlsdata2.obj
 0002:0000b258       ??_C@_03IFJFEIGA@Aug?$AA@  0000000180063258     LIBCMTD:nlsdata2.obj
 0002:0000b25c       ??_C@_03LBGABGKK@Jul?$AA@  000000018006325c     LIBCMTD:nlsdata2.obj
 0002:0000b260       ??_C@_03IDFGHECI@Jun?$AA@  0000000180063260     LIBCMTD:nlsdata2.obj
 0002:0000b264       ??_C@_03CNMDKL@May?$AA@    0000000180063264     LIBCMTD:nlsdata2.obj
 0002:0000b268       ??_C@_03LEOLGMJP@Apr?$AA@  0000000180063268     LIBCMTD:nlsdata2.obj
 0002:0000b26c       ??_C@_03ODNJBKGA@Mar?$AA@  000000018006326c     LIBCMTD:nlsdata2.obj
 0002:0000b270       ??_C@_03HJBDCHOM@Feb?$AA@  0000000180063270     LIBCMTD:nlsdata2.obj
 0002:0000b274       ??_C@_03JIHJHPIE@Jan?$AA@  0000000180063274     LIBCMTD:nlsdata2.obj
 0002:0000b278       ??_C@_08INBOOONO@Saturday?$AA@ 0000000180063278     LIBCMTD:nlsdata2.obj
 0002:0000b284       ??_C@_06JECMNKMI@Friday?$AA@ 0000000180063284     LIBCMTD:nlsdata2.obj
 0002:0000b290       ??_C@_08HACCIKIA@Thursday?$AA@ 0000000180063290     LIBCMTD:nlsdata2.obj
 0002:0000b2a0       ??_C@_09DLIGFAKA@Wednesday?$AA@ 00000001800632a0     LIBCMTD:nlsdata2.obj
 0002:0000b2b0       ??_C@_07BAAGCFCM@Tuesday?$AA@ 00000001800632b0     LIBCMTD:nlsdata2.obj
 0002:0000b2b8       ??_C@_06JLEDEDGH@Monday?$AA@ 00000001800632b8     LIBCMTD:nlsdata2.obj
 0002:0000b2c0       ??_C@_06OOPIFAJ@Sunday?$AA@ 00000001800632c0     LIBCMTD:nlsdata2.obj
 0002:0000b2c8       ??_C@_03FEFJNEK@Sat?$AA@   00000001800632c8     LIBCMTD:nlsdata2.obj
 0002:0000b2cc       ??_C@_03IDIOELNC@Fri?$AA@  00000001800632cc     LIBCMTD:nlsdata2.obj
 0002:0000b2d0       ??_C@_03IOFIKPDN@Thu?$AA@  00000001800632d0     LIBCMTD:nlsdata2.obj
 0002:0000b2d4       ??_C@_03MHOMLAJA@Wed?$AA@  00000001800632d4     LIBCMTD:nlsdata2.obj
 0002:0000b2d8       ??_C@_03NAGEINEP@Tue?$AA@  00000001800632d8     LIBCMTD:nlsdata2.obj
 0002:0000b2dc       ??_C@_03PDAGKDH@Mon?$AA@   00000001800632dc     LIBCMTD:nlsdata2.obj
 0002:0000b2e0       ??_C@_03KOEHGMDN@Sun?$AA@  00000001800632e0     LIBCMTD:nlsdata2.obj
 0002:0000b2f0       ??_C@_1GM@FOJELOKL@?$AAf?$AA?3?$AA?2?$AAd?$AAd?$AA?2?$AAv?$AAc?$AAt?$AAo?$AAo?$AAl?$AAs?$AA?2?$AAc?$AAr?$AAt?$AA_?$AAb?$AAl?$AAd?$AA?2?$AAs?$AAe?$AAl?$AAf?$AA_?$AA6?$AA4?$AA_?$AAa?$AAm@ 00000001800632f0     LIBCMTD:isctype.obj
 0002:0000b360       ??_C@_1DC@BPLPALML@?$AA?$CI?$AAu?$AAn?$AAs?$AAi?$AAg?$AAn?$AAe?$AAd?$AA?$CJ?$AA?$CI?$AAc?$AA?5?$AA?$CL?$AA?5?$AA1?$AA?$CJ?$AA?5?$AA?$DM?$AA?$DN?$AA?5?$AA2?$AA5?$AA6?$AA?$AA@ 0000000180063360     LIBCMTD:isctype.obj
 0002:0000b3a0       ??_C@_1GO@KICJGPPN@?$AAf?$AA?3?$AA?2?$AAd?$AAd?$AA?2?$AAv?$AAc?$AAt?$AAo?$AAo?$AAl?$AAs?$AA?2?$AAc?$AAr?$AAt?$AA_?$AAb?$AAl?$AAd?$AA?2?$AAs?$AAe?$AAl?$AAf?$AA_?$AA6?$AA4?$AA_?$AAa?$AAm@ 00000001800633a0     LIBCMTD:vsprintf.obj
 0002:0000b410       ??_C@_1EC@FABAOFFO@?$AA?$CI?$AAc?$AAo?$AAu?$AAn?$AAt?$AA?5?$AA?$DN?$AA?$DN?$AA?5?$AA0?$AA?$CJ?$AA?5?$AA?$HM?$AA?$HM?$AA?5?$AA?$CI?$AAs?$AAt?$AAr?$AAi?$AAn?$AAg?$AA?5?$AA?$CB?$AA?$DN?$AA?5?$AAN?$AAU?$AAL?$AAL?$AA?$CJ@ 0000000180063410     LIBCMTD:vsnprnc.obj
 0002:0000b458       ??_C@_1CE@PCFPEIFI@?$AA_?$AAv?$AAs?$AAn?$AAp?$AAr?$AAi?$AAn?$AAt?$AAf?$AA_?$AAh?$AAe?$AAl?$AAp?$AAe?$AAr?$AA?$AA@ 0000000180063458     LIBCMTD:vsnprnc.obj
 0002:0000b480       ??_C@_1DA@HPBFKMEB@?$AA?$CI?$AA?$CC?$AAB?$AAu?$AAf?$AAf?$AAe?$AAr?$AA?5?$AAt?$AAo?$AAo?$AA?5?$AAs?$AAm?$AAa?$AAl?$AAl?$AA?$CC?$AA?0?$AA?5?$AA0?$AA?$CJ?$AA?$AA@ 0000000180063480     LIBCMTD:vsnprnc.obj
 0002:0000b4b0       ??_C@_1EE@OKCKIGFK@?$AAs?$AAt?$AAr?$AAi?$AAn?$AAg?$AA?5?$AA?$CB?$AA?$DN?$AA?5?$AAN?$AAU?$AAL?$AAL?$AA?5?$AA?$CG?$AA?$CG?$AA?5?$AAs?$AAi?$AAz?$AAe?$AAI?$AAn?$AAB?$AAy?$AAt?$AAe?$AAs?$AA?5?$AA?$DO?$AA?5@ 00000001800634b0     LIBCMTD:vsnprnc.obj
 0002:0000b4f8       ??_C@_1BM@BLJALHEF@?$AA_?$AAv?$AAs?$AAp?$AAr?$AAi?$AAn?$AAt?$AAf?$AA_?$AAs?$AA_?$AAl?$AA?$AA@ 00000001800634f8     LIBCMTD:vsnprnc.obj
 0002:0000b518       ??_C@_1BO@MLMCMBKN@?$AAf?$AAo?$AAr?$AAm?$AAa?$AAt?$AA?5?$AA?$CB?$AA?$DN?$AA?5?$AAN?$AAU?$AAL?$AAL?$AA?$AA@ 0000000180063518     LIBCMTD:vsnprnc.obj
 0002:0000b538       ??_C@_1BO@MMPELNIM@?$AA_?$AAv?$AAs?$AAn?$AAp?$AAr?$AAi?$AAn?$AAt?$AAf?$AA_?$AAs?$AA_?$AAl?$AA?$AA@ 0000000180063538     LIBCMTD:vsnprnc.obj
 0002:0000b558       ??_C@_1CA@CBMNPEO@?$AAs?$AAi?$AAz?$AAe?$AAI?$AAn?$AAB?$AAy?$AAt?$AAe?$AAs?$AA?5?$AA?$DO?$AA?5?$AA0?$AA?$AA@ 0000000180063558     LIBCMTD:cvt.obj
 0002:0000b578       ??_C@_1BC@INKAPMHI@?$AA_?$AAc?$AAf?$AAt?$AAo?$AAe?$AA_?$AAl?$AA?$AA@ 0000000180063578     LIBCMTD:cvt.obj
 0002:0000b590       ??_C@_1HI@KBDPHEPE@?$AAf?$AA?3?$AA?2?$AAd?$AAd?$AA?2?$AAv?$AAc?$AAt?$AAo?$AAo?$AAl?$AAs?$AA?2?$AAc?$AAr?$AAt?$AA_?$AAb?$AAl?$AAd?$AA?2?$AAs?$AAe?$AAl?$AAf?$AA_?$AA6?$AA4?$AA_?$AAa?$AAm@ 0000000180063590     LIBCMTD:cvt.obj
 0002:0000b610       ??_C@_1LE@EOIFGNCJ@?$AAs?$AAt?$AAr?$AAc?$AAp?$AAy?$AA_?$AAs?$AA?$CI?$AAp?$AA?0?$AA?5?$AA?$CI?$AAs?$AAi?$AAz?$AAe?$AAI?$AAn?$AAB?$AAy?$AAt?$AAe?$AAs?$AA?5?$AA?$DN?$AA?$DN?$AA?5?$AA?$CI?$AAs?$AAi?$AAz@ 0000000180063610     LIBCMTD:cvt.obj
 0002:0000b6c4       ??_C@_05KLBDPFGC@e?$CL000?$AA@ 00000001800636c4     LIBCMTD:cvt.obj
 0002:0000b6d0       ??_C@_1HE@NACBNDPP@?$AAs?$AAi?$AAz?$AAe?$AAI?$AAn?$AAB?$AAy?$AAt?$AAe?$AAs?$AA?5?$AA?$DO?$AA?5?$AA?$CI?$AAs?$AAi?$AAz?$AAe?$AA_?$AAt?$AA?$CJ?$AA?$CI?$AA3?$AA?5?$AA?$CL?$AA?5?$AA?$CI?$AAn?$AAd?$AAe?$AAc@ 00000001800636d0     LIBCMTD:cvt.obj
 0002:0000b748       ??_C@_1BE@OLBNEILL@?$AA_?$AAc?$AAf?$AAt?$AAo?$AAe?$AA2?$AA_?$AAl?$AA?$AA@ 0000000180063748     LIBCMTD:cvt.obj
 0002:0000b760       ??_C@_1FC@IKIMAMJB@?$AAs?$AAi?$AAz?$AAe?$AAI?$AAn?$AAB?$AAy?$AAt?$AAe?$AAs?$AA?5?$AA?$DO?$AA?5?$AA?$CI?$AAs?$AAi?$AAz?$AAe?$AA_?$AAt?$AA?$CJ?$AA?$CI?$AA1?$AA?5?$AA?$CL?$AA?5?$AA4?$AA?5?$AA?$CL?$AA?5?$AAn@ 0000000180063760     LIBCMTD:cvt.obj
 0002:0000b7b8       ??_C@_1BC@JOKPCIC@?$AA_?$AAc?$AAf?$AAt?$AAo?$AAa?$AA_?$AAl?$AA?$AA@ 00000001800637b8     LIBCMTD:cvt.obj
 0002:0000b7d0       ??_C@_1BC@DCPPLJL@?$AA_?$AAc?$AAf?$AAt?$AAo?$AAf?$AA_?$AAl?$AA?$AA@ 00000001800637d0     LIBCMTD:cvt.obj
 0002:0000b7e8       ??_C@_1BE@CKPDLI@?$AA_?$AAc?$AAf?$AAt?$AAo?$AAf?$AA2?$AA_?$AAl?$AA?$AA@ 00000001800637e8     LIBCMTD:cvt.obj
 0002:0000b800       ??_C@_1BC@MPIFPLAF@?$AA_?$AAc?$AAf?$AAt?$AAo?$AAg?$AA_?$AAl?$AA?$AA@ 0000000180063800     LIBCMTD:cvt.obj
 0002:0000b818       ??_C@_0L@KDOEJCKC@_nextafter?$AA@ 0000000180063818     LIBCMTD:_fpexcept_.obj
 0002:0000b824       ??_C@_05JGDBENOH@_logb?$AA@ 0000000180063824     LIBCMTD:_fpexcept_.obj
 0002:0000b82c       ??_C@_03ONILCKOB@_yn?$AA@  000000018006382c     LIBCMTD:_fpexcept_.obj
 0002:0000b830       ??_C@_03NAKIGLHK@_y1?$AA@  0000000180063830     LIBCMTD:_fpexcept_.obj
 0002:0000b834       ??_C@_03MJLDFKDL@_y0?$AA@  0000000180063834     LIBCMTD:_fpexcept_.obj
 0002:0000b838       ??_C@_05GKKHEGJL@frexp?$AA@ 0000000180063838     LIBCMTD:_fpexcept_.obj
 0002:0000b840       ??_C@_04KEPJIHGP@fmod?$AA@ 0000000180063840     LIBCMTD:_fpexcept_.obj
 0002:0000b848       ??_C@_06MEIMCGCF@_hypot?$AA@ 0000000180063848     LIBCMTD:_fpexcept_.obj
 0002:0000b850       ??_C@_05KBKMEMPO@_cabs?$AA@ 0000000180063850     LIBCMTD:_fpexcept_.obj
 0002:0000b858       ??_C@_05CEJMAHNP@ldexp?$AA@ 0000000180063858     LIBCMTD:_fpexcept_.obj
 0002:0000b860       ??_C@_04EHEDPDJG@modf?$AA@ 0000000180063860     LIBCMTD:_fpexcept_.obj
 0002:0000b868       ??_C@_04ODHECPBC@fabs?$AA@ 0000000180063868     LIBCMTD:_fpexcept_.obj
 0002:0000b870       ??_C@_05PBJFFIGL@floor?$AA@ 0000000180063870     LIBCMTD:_fpexcept_.obj
 0002:0000b878       ??_C@_04GFPJNGEK@ceil?$AA@ 0000000180063878     LIBCMTD:_fpexcept_.obj
 0002:0000b880       ??_C@_03IIINPABG@tan?$AA@  0000000180063880     LIBCMTD:_fpexcept_.obj
 0002:0000b884       ??_C@_03LALBNOCG@cos?$AA@  0000000180063884     LIBCMTD:_fpexcept_.obj
 0002:0000b888       ??_C@_03BLEJJJBH@sin?$AA@  0000000180063888     LIBCMTD:_fpexcept_.obj
 0002:0000b88c       ??_C@_04EIAKFFMI@sqrt?$AA@ 000000018006388c     LIBCMTD:_fpexcept_.obj
 0002:0000b894       ??_C@_05KNGEOGJB@atan2?$AA@ 0000000180063894     LIBCMTD:_fpexcept_.obj
 0002:0000b89c       ??_C@_04MLLJIGOK@atan?$AA@ 000000018006389c     LIBCMTD:_fpexcept_.obj
 0002:0000b8a4       ??_C@_04PDIFKINK@acos?$AA@ 00000001800638a4     LIBCMTD:_fpexcept_.obj
 0002:0000b8ac       ??_C@_04FIHNOPOL@asin?$AA@ 00000001800638ac     LIBCMTD:_fpexcept_.obj
 0002:0000b8b4       ??_C@_04FJHINJAO@tanh?$AA@ 00000001800638b4     LIBCMTD:_fpexcept_.obj
 0002:0000b8bc       ??_C@_04HPJJNFIM@cosh?$AA@ 00000001800638bc     LIBCMTD:_fpexcept_.obj
 0002:0000b8c4       ??_C@_04COOMCNPB@sinh?$AA@ 00000001800638c4     LIBCMTD:_fpexcept_.obj
 0002:0000b8cc       ??_C@_05HGHHAHAP@log10?$AA@ 00000001800638cc     LIBCMTD:_fpexcept_.obj
 0002:0000b8d4       ??_C@_03MGHMBJCF@log?$AA@  00000001800638d4     LIBCMTD:_fpexcept_.obj
 0002:0000b8d8       ??_C@_03JGHBODFD@pow?$AA@  00000001800638d8     LIBCMTD:_fpexcept_.obj
 0002:0000b8dc       ??_C@_03KHJOGHMM@exp?$AA@  00000001800638dc     LIBCMTD:_fpexcept_.obj
 0002:0000b8e0       ??_C@_1O@NCBFODOE@?$AAx?$AAt?$AAo?$AAw?$AA_?$AAs?$AA?$AA@ 00000001800638e0     LIBCMTD:xtows.obj
 0002:0000b8f0       ??_C@_1FA@MJKDNFFB@?$AA?$CI?$AAL?$AA?$CC?$AAS?$AAt?$AAr?$AAi?$AAn?$AAg?$AA?5?$AAi?$AAs?$AA?5?$AAn?$AAo?$AAt?$AA?5?$AAn?$AAu?$AAl?$AAl?$AA?5?$AAt?$AAe?$AAr?$AAm?$AAi?$AAn?$AAa?$AAt?$AAe?$AAd@ 00000001800638f0     LIBCMTD:wcsncat_s.obj
 0002:0000b940       ??_C@_1DM@FHLMIEG@?$AAS?$AAt?$AAr?$AAi?$AAn?$AAg?$AA?5?$AAi?$AAs?$AA?5?$AAn?$AAo?$AAt?$AA?5?$AAn?$AAu?$AAl?$AAl?$AA?5?$AAt?$AAe?$AAr?$AAm?$AAi?$AAn?$AAa?$AAt?$AAe?$AAd?$AA?$AA@ 0000000180063940     LIBCMTD:wcsncat_s.obj
 0002:0000b980       ??_C@_1BE@KPKIKKCF@?$AAw?$AAc?$AAs?$AAn?$AAc?$AAa?$AAt?$AA_?$AAs?$AA?$AA@ 0000000180063980     LIBCMTD:wcsncat_s.obj
 0002:0000b9a0       ??_C@_1HE@OENNAEEN@?$AAf?$AA?3?$AA?2?$AAd?$AAd?$AA?2?$AAv?$AAc?$AAt?$AAo?$AAo?$AAl?$AAs?$AA?2?$AAc?$AAr?$AAt?$AA_?$AAb?$AAl?$AAd?$AA?2?$AAs?$AAe?$AAl?$AAf?$AA_?$AA6?$AA4?$AA_?$AAa?$AAm@ 00000001800639a0     LIBCMTD:wcsncat_s.obj
 0002:0000ba18       ??_C@_1BE@PMMBFFCC@?$AAw?$AAc?$AAs?$AAn?$AAc?$AAp?$AAy?$AA_?$AAs?$AA?$AA@ 0000000180063a18     LIBCMTD:wcsncpy_s.obj
 0002:0000ba30       ??_C@_1HE@CMGGKMON@?$AAf?$AA?3?$AA?2?$AAd?$AAd?$AA?2?$AAv?$AAc?$AAt?$AAo?$AAo?$AAl?$AAs?$AA?2?$AAc?$AAr?$AAt?$AA_?$AAb?$AAl?$AAd?$AA?2?$AAs?$AAe?$AAl?$AAf?$AA_?$AA6?$AA4?$AA_?$AAa?$AAm@ 0000000180063a30     LIBCMTD:wcsncpy_s.obj
 0002:0000baa8       ??_C@_1BC@PLIEPKPJ@?$AAw?$AAc?$AAs?$AAc?$AAa?$AAt?$AA_?$AAs?$AA?$AA@ 0000000180063aa8     LIBCMTD:wcscat_s.obj
 0002:0000bac0       ??_C@_1HC@LMNIDGBJ@?$AAf?$AA?3?$AA?2?$AAd?$AAd?$AA?2?$AAv?$AAc?$AAt?$AAo?$AAo?$AAl?$AAs?$AA?2?$AAc?$AAr?$AAt?$AA_?$AAb?$AAl?$AAd?$AA?2?$AAs?$AAe?$AAl?$AAf?$AA_?$AA6?$AA4?$AA_?$AAa?$AAm@ 0000000180063ac0     LIBCMTD:wcscat_s.obj
 0002:0000bb38       ??_C@_1BC@BHLPNJBO@?$AAf?$AAw?$AAp?$AAr?$AAi?$AAn?$AAt?$AAf?$AA?$AA@ 0000000180063b38     LIBCMTD:fwprintf.obj
 0002:0000bb50       ??_C@_1GO@EPDDMOOF@?$AAf?$AA?3?$AA?2?$AAd?$AAd?$AA?2?$AAv?$AAc?$AAt?$AAo?$AAo?$AAl?$AAs?$AA?2?$AAc?$AAr?$AAt?$AA_?$AAb?$AAl?$AAd?$AA?2?$AAs?$AAe?$AAl?$AAf?$AA_?$AA6?$AA4?$AA_?$AAa?$AAm@ 0000000180063b50     LIBCMTD:fwprintf.obj
 0002:0000bbc0       ??_C@_1CA@LFDHAMEM@?$AA_?$AAs?$AAe?$AAt?$AA_?$AAe?$AAr?$AAr?$AAo?$AAr?$AA_?$AAm?$AAo?$AAd?$AAe?$AA?$AA@ 0000000180063bc0     LIBCMTD:errmode.obj
 0002:0000bbe0       ??_C@_1GM@CPDLDAAM@?$AAf?$AA?3?$AA?2?$AAd?$AAd?$AA?2?$AAv?$AAc?$AAt?$AAo?$AAo?$AAl?$AAs?$AA?2?$AAc?$AAr?$AAt?$AA_?$AAb?$AAl?$AAd?$AA?2?$AAs?$AAe?$AAl?$AAf?$AA_?$AA6?$AA4?$AA_?$AAa?$AAm@ 0000000180063be0     LIBCMTD:errmode.obj
 0002:0000bc50       ??_C@_1DE@BCNCAIK@?$AA?$CI?$AA?$CC?$AAI?$AAn?$AAv?$AAa?$AAl?$AAi?$AAd?$AA?5?$AAe?$AAr?$AAr?$AAo?$AAr?$AA_?$AAm?$AAo?$AAd?$AAe?$AA?$CC?$AA?0?$AA?5?$AA0?$AA?$CJ?$AA?$AA@ 0000000180063c50     LIBCMTD:errmode.obj
 0002:0000bc88       ??_C@_1CE@IGKFIJFD@?$AA_?$AAv?$AAs?$AAw?$AAp?$AAr?$AAi?$AAn?$AAt?$AAf?$AA_?$AAh?$AAe?$AAl?$AAp?$AAe?$AAr?$AA?$AA@ 0000000180063c88     LIBCMTD:vswprnc.obj
 0002:0000bcb0       ??_C@_1GO@JNKHIJID@?$AAf?$AA?3?$AA?2?$AAd?$AAd?$AA?2?$AAv?$AAc?$AAt?$AAo?$AAo?$AAl?$AAs?$AA?2?$AAc?$AAr?$AAt?$AA_?$AAb?$AAl?$AAd?$AA?2?$AAs?$AAe?$AAl?$AAf?$AA_?$AA6?$AA4?$AA_?$AAa?$AAm@ 0000000180063cb0     LIBCMTD:vswprnc.obj
 0002:0000bd20       ??_C@_1EE@MPCHJFGP@?$AAs?$AAt?$AAr?$AAi?$AAn?$AAg?$AA?5?$AA?$CB?$AA?$DN?$AA?5?$AAN?$AAU?$AAL?$AAL?$AA?5?$AA?$CG?$AA?$CG?$AA?5?$AAs?$AAi?$AAz?$AAe?$AAI?$AAn?$AAW?$AAo?$AAr?$AAd?$AAs?$AA?5?$AA?$DO?$AA?5@ 0000000180063d20     LIBCMTD:vswprnc.obj
 0002:0000bd68       ??_C@_1CA@BKFKMJFF@?$AA_?$AAv?$AAs?$AAn?$AAw?$AAp?$AAr?$AAi?$AAn?$AAt?$AAf?$AA_?$AAs?$AA_?$AAl?$AA?$AA@ 0000000180063d68     LIBCMTD:vswprnc.obj
 0002:0000bd88       ??_C@_1DE@MMOGFGHF@?$AAs?$AAt?$AAr?$AAc?$AAp?$AAy?$AA_?$AAs?$AA?$CI?$AA?$CK?$AAe?$AAn?$AAv?$AA?0?$AA?5?$AAc?$AAc?$AAh?$AAa?$AAr?$AAs?$AA?0?$AA?5?$AAp?$AA?$CJ?$AA?$AA@ 0000000180063d88     LIBCMTD:stdenvp.obj
 0002:0000bdc0       ??_C@_1BC@GHMCNHHL@?$AA_?$AAs?$AAe?$AAt?$AAe?$AAn?$AAv?$AAp?$AA?$AA@ 0000000180063dc0     LIBCMTD:stdenvp.obj
 0002:0000bde0       ??_C@_1GM@EPOINBMA@?$AAf?$AA?3?$AA?2?$AAd?$AAd?$AA?2?$AAv?$AAc?$AAt?$AAo?$AAo?$AAl?$AAs?$AA?2?$AAc?$AAr?$AAt?$AA_?$AAb?$AAl?$AAd?$AA?2?$AAs?$AAe?$AAl?$AAf?$AA_?$AA6?$AA4?$AA_?$AAa?$AAm@ 0000000180063de0     LIBCMTD:stdenvp.obj
 0002:0000be50       ??_C@_0DG@PKDKGAIM@f?3?2dd?2vctools?2crt_bld?2self_64_am@ 0000000180063e50     LIBCMTD:stdenvp.obj
 0002:0000be88       ??_C@_0DG@CIKGHJB@f?3?2dd?2vctools?2crt_bld?2self_64_am@ 0000000180063e88     LIBCMTD:stdargv.obj
 0002:0000bec0       ??_C@_0DE@ONNEBBOK@f?3?2dd?2vctools?2crt_bld?2self_64_am@ 0000000180063ec0     LIBCMTD:a_env.obj
 0002:0000bf00       _XcptActTab                0000000180063f00     LIBCMTD:winxfltr.obj
 0002:0000bfc0       _First_FPE_Indx            0000000180063fc0     LIBCMTD:winxfltr.obj
 0002:0000bfc4       _Num_FPE                   0000000180063fc4     LIBCMTD:winxfltr.obj
 0002:0000bfc8       _XcptActTabSize            0000000180063fc8     LIBCMTD:winxfltr.obj
 0002:0000bfcc       _XcptActTabCount           0000000180063fcc     LIBCMTD:winxfltr.obj
 0002:0000bfd0       ??_C@_0BG@KLEAJEFJ@Illegal?5byte?5sequence?$AA@ 0000000180063fd0     LIBCMTD:syserr.obj
 0002:0000bfe8       ??_C@_0BE@ICMCHPHH@Directory?5not?5empty?$AA@ 0000000180063fe8     LIBCMTD:syserr.obj
 0002:0000c000       ??_C@_0BJ@IHEHINLI@Function?5not?5implemented?$AA@ 0000000180064000     LIBCMTD:syserr.obj
 0002:0000c020       ??_C@_0BD@CLHBCGPB@No?5locks?5available?$AA@ 0000000180064020     LIBCMTD:syserr.obj
 0002:0000c038       ??_C@_0BC@BEDIHIDK@Filename?5too?5long?$AA@ 0000000180064038     LIBCMTD:syserr.obj
 0002:0000c050       ??_C@_0BK@JAEBMJJM@Resource?5deadlock?5avoided?$AA@ 0000000180064050     LIBCMTD:syserr.obj
 0002:0000c070       ??_C@_0BB@FCBJFCAJ@Result?5too?5large?$AA@ 0000000180064070     LIBCMTD:syserr.obj
 0002:0000c088       ??_C@_0N@MMJPGLJK@Domain?5error?$AA@ 0000000180064088     LIBCMTD:syserr.obj
 0002:0000c098       ??_C@_0M@LHEPIIOM@Broken?5pipe?$AA@ 0000000180064098     LIBCMTD:syserr.obj
 0002:0000c0a8       ??_C@_0P@PKCJJLLM@Too?5many?5links?$AA@ 00000001800640a8     LIBCMTD:syserr.obj
 0002:0000c0b8       ??_C@_0BG@DDBFNKBH@Read?9only?5file?5system?$AA@ 00000001800640b8     LIBCMTD:syserr.obj
 0002:0000c0d0       ??_C@_0N@FEHLOILP@Invalid?5seek?$AA@ 00000001800640d0     LIBCMTD:syserr.obj
 0002:0000c0e0       ??_C@_0BI@FEALHKLD@No?5space?5left?5on?5device?$AA@ 00000001800640e0     LIBCMTD:syserr.obj
 0002:0000c0f8       ??_C@_0P@LFMMIPAE@File?5too?5large?$AA@ 00000001800640f8     LIBCMTD:syserr.obj
 0002:0000c108       ??_C@_0CE@ONOKNLPF@Inappropriate?5I?1O?5control?5operat@ 0000000180064108     LIBCMTD:syserr.obj
 0002:0000c130       ??_C@_0BE@INBJMKGG@Too?5many?5open?5files?$AA@ 0000000180064130     LIBCMTD:syserr.obj
 0002:0000c148       ??_C@_0BO@IIFBODJE@Too?5many?5open?5files?5in?5system?$AA@ 0000000180064148     LIBCMTD:syserr.obj
 0002:0000c168       ??_C@_0BB@HMGGCEBG@Invalid?5argument?$AA@ 0000000180064168     LIBCMTD:syserr.obj
 0002:0000c180       ??_C@_0P@NDHGCGKE@Is?5a?5directory?$AA@ 0000000180064180     LIBCMTD:syserr.obj
 0002:0000c190       ??_C@_0BA@CJBACOOL@Not?5a?5directory?$AA@ 0000000180064190     LIBCMTD:syserr.obj
 0002:0000c1a0       ??_C@_0P@NLEIANHE@No?5such?5device?$AA@ 00000001800641a0     LIBCMTD:syserr.obj
 0002:0000c1b0       ??_C@_0O@OAMDNOCP@Improper?5link?$AA@ 00000001800641b0     LIBCMTD:syserr.obj
 0002:0000c1c0       ??_C@_0M@NAAJNNGH@File?5exists?$AA@ 00000001800641c0     LIBCMTD:syserr.obj
 0002:0000c1d0       ??_C@_0BA@BIBLIOEK@Resource?5device?$AA@ 00000001800641d0     LIBCMTD:syserr.obj
 0002:0000c1e0       ??_C@_0O@NIPGCINC@Unknown?5error?$AA@ 00000001800641e0     LIBCMTD:syserr.obj
 0002:0000c1f0       ??_C@_0M@LOEHLCJD@Bad?5address?$AA@ 00000001800641f0     LIBCMTD:syserr.obj
 0002:0000c200       ??_C@_0BC@HFNFNKAI@Permission?5denied?$AA@ 0000000180064200     LIBCMTD:syserr.obj
 0002:0000c218       ??_C@_0BB@IMDKMPFB@Not?5enough?5space?$AA@ 0000000180064218     LIBCMTD:syserr.obj
 0002:0000c230       ??_C@_0CB@EPFKGNAK@Resource?5temporarily?5unavailable@ 0000000180064230     LIBCMTD:syserr.obj
 0002:0000c258       ??_C@_0BD@LOHELEP@No?5child?5processes?$AA@ 0000000180064258     LIBCMTD:syserr.obj
 0002:0000c270       ??_C@_0BE@NFGDDCEF@Bad?5file?5descriptor?$AA@ 0000000180064270     LIBCMTD:syserr.obj
 0002:0000c288       ??_C@_0BC@HKPNECK@Exec?5format?5error?$AA@ 0000000180064288     LIBCMTD:syserr.obj
 0002:0000c2a0       ??_C@_0BC@MFFGCDFL@Arg?5list?5too?5long?$AA@ 00000001800642a0     LIBCMTD:syserr.obj
 0002:0000c2b8       ??_C@_0BK@DPKMCKJ@No?5such?5device?5or?5address?$AA@ 00000001800642b8     LIBCMTD:syserr.obj
 0002:0000c2d8       ??_C@_0BD@KKNFOBBD@Input?1output?5error?$AA@ 00000001800642d8     LIBCMTD:syserr.obj
 0002:0000c2f0       ??_C@_0BK@FJBOAFDK@Interrupted?5function?5call?$AA@ 00000001800642f0     LIBCMTD:syserr.obj
 0002:0000c310       ??_C@_0BA@FKIAIBGA@No?5such?5process?$AA@ 0000000180064310     LIBCMTD:syserr.obj
 0002:0000c320       ??_C@_0BK@FMDHKPNF@No?5such?5file?5or?5directory?$AA@ 0000000180064320     LIBCMTD:syserr.obj
 0002:0000c340       ??_C@_0BI@BJFCGOHL@Operation?5not?5permitted?$AA@ 0000000180064340     LIBCMTD:syserr.obj
 0002:0000c358       ??_C@_08INEPGKHH@No?5error?$AA@ 0000000180064358     LIBCMTD:syserr.obj
 0002:0000c368       ??_C@_1BE@NDMJHJJG@?$AAs?$AAt?$AAr?$AAn?$AAc?$AAp?$AAy?$AA_?$AAs?$AA?$AA@ 0000000180064368     LIBCMTD:strncpy_s.obj
 0002:0000c3a8       ??_C@_1CI@KEDPFCAL@?$AA?$CI?$AA?$CK?$AAm?$AAo?$AAd?$AAe?$AA?5?$AA?$DN?$AA?$DN?$AA?5?$AA_?$AAT?$AA?$CI?$AA?8?$AA?2?$AA0?$AA?8?$AA?$CJ?$AA?$CJ?$AA?$AA@ 00000001800643a8     LIBCMTD:_open.obj
 0002:0000c3d0       ??_C@_1BE@DONHJJKE@?$AA_?$AAo?$AAp?$AAe?$AAn?$AAf?$AAi?$AAl?$AAe?$AA?$AA@ 00000001800643d0     LIBCMTD:_open.obj
 0002:0000c3e8       ??_C@_1DK@PKMJBLLN@?$AA?$CI?$AA?$CC?$AAI?$AAn?$AAv?$AAa?$AAl?$AAi?$AAd?$AA?5?$AAf?$AAi?$AAl?$AAe?$AA?5?$AAo?$AAp?$AAe?$AAn?$AA?5?$AAm?$AAo?$AAd?$AAe?$AA?$CC?$AA?0?$AA0?$AA?$CJ?$AA?$AA@ 00000001800643e8     LIBCMTD:_open.obj
 0002:0000c428       ??_C@_1BK@HGLMNMEC@?$AAm?$AAo?$AAd?$AAe?$AA?5?$AA?$CB?$AA?$DN?$AA?5?$AAN?$AAU?$AAL?$AAL?$AA?$AA@ 0000000180064428     LIBCMTD:_open.obj
 0002:0000c450       ??_C@_1GI@CHOPOMJM@?$AAf?$AA?3?$AA?2?$AAd?$AAd?$AA?2?$AAv?$AAc?$AAt?$AAo?$AAo?$AAl?$AAs?$AA?2?$AAc?$AAr?$AAt?$AA_?$AAb?$AAl?$AAd?$AA?2?$AAs?$AAe?$AAl?$AAf?$AA_?$AA6?$AA4?$AA_?$AAa?$AAm@ 0000000180064450     LIBCMTD:_open.obj
 0002:0000c4b8       ??_C@_1CC@JBMDNKJP@?$AAf?$AAi?$AAl?$AAe?$AAn?$AAa?$AAm?$AAe?$AA?5?$AA?$CB?$AA?$DN?$AA?5?$AAN?$AAU?$AAL?$AAL?$AA?$AA@ 00000001800644b8     LIBCMTD:_open.obj
 0002:0000c4e0       ??_C@_0DF@MDFFADLF@f?3?2dd?2vctools?2crt_bld?2self_64_am@ 00000001800644e0     LIBCMTD:stream.obj
 0002:0000c558       ??_C@_1O@EDOIKGHF@?$AA_?$AAl?$AAs?$AAe?$AAe?$AAk?$AA?$AA@ 0000000180064558     LIBCMTD:lseek.obj
 0002:0000c570       ??_C@_1GI@GPCDCEEE@?$AAf?$AA?3?$AA?2?$AAd?$AAd?$AA?2?$AAv?$AAc?$AAt?$AAo?$AAo?$AAl?$AAs?$AA?2?$AAc?$AAr?$AAt?$AA_?$AAb?$AAl?$AAd?$AA?2?$AAs?$AAe?$AAl?$AAf?$AA_?$AA6?$AA4?$AA_?$AAa?$AAm@ 0000000180064570     LIBCMTD:lseek.obj
 0002:0000c5d8       ??_C@_1DM@LMLOLGJ@?$AA?$CI?$AA?$CC?$AAI?$AAn?$AAv?$AAa?$AAl?$AAi?$AAd?$AA?5?$AAf?$AAi?$AAl?$AAe?$AA?5?$AAd?$AAe?$AAs?$AAc?$AAr?$AAi?$AAp?$AAt?$AAo?$AAr?$AA?$CC?$AA?0?$AA0?$AA?$CJ?$AA?$AA@ 00000001800645d8     LIBCMTD:lseek.obj
 0002:0000c620       ??_C@_1GI@IINBGHL@?$AAf?$AA?3?$AA?2?$AAd?$AAd?$AA?2?$AAv?$AAc?$AAt?$AAo?$AAo?$AAl?$AAs?$AA?2?$AAc?$AAr?$AAt?$AA_?$AAb?$AAl?$AAd?$AA?2?$AAs?$AAe?$AAl?$AAf?$AA_?$AA6?$AA4?$AA_?$AAa?$AAm@ 0000000180064620     LIBCMTD:ftell.obj
 0002:0000c688       ??_C@_1BM@EPIDANEK@?$AA_?$AAf?$AAt?$AAe?$AAl?$AAl?$AA_?$AAn?$AAo?$AAl?$AAo?$AAc?$AAk?$AA?$AA@ 0000000180064688     LIBCMTD:ftell.obj
 0002:0000c6b0       ??_C@_1GO@POAGLFBM@?$AAf?$AA?3?$AA?2?$AAd?$AAd?$AA?2?$AAv?$AAc?$AAt?$AAo?$AAo?$AAl?$AAs?$AA?2?$AAc?$AAr?$AAt?$AA_?$AAb?$AAl?$AAd?$AA?2?$AAs?$AAe?$AAl?$AAf?$AA_?$AA6?$AA4?$AA_?$AAa?$AAm@ 00000001800646b0     LIBCMTD:inittime.obj
 0002:0000c720       ??_C@_1EE@FDHCFDHN@?$AAp?$AAl?$AAo?$AAc?$AAi?$AA?9?$AA?$DO?$AAl?$AAc?$AA_?$AAt?$AAi?$AAm?$AAe?$AA_?$AAc?$AAu?$AAr?$AAr?$AA?9?$AA?$DO?$AAr?$AAe?$AAf?$AAc?$AAo?$AAu?$AAn?$AAt?$AA?5?$AA?$DO?$AA?5@ 0000000180064720     LIBCMTD:inittime.obj
 0002:0000c768       ??_C@_0DH@KKGHHNB@f?3?2dd?2vctools?2crt_bld?2self_64_am@ 0000000180064768     LIBCMTD:inittime.obj
 0002:0000c7a0       ??_C@_1GM@DKGDEDPG@?$AAf?$AA?3?$AA?2?$AAd?$AAd?$AA?2?$AAv?$AAc?$AAt?$AAo?$AAo?$AAl?$AAs?$AA?2?$AAc?$AAr?$AAt?$AA_?$AAb?$AAl?$AAd?$AA?2?$AAs?$AAe?$AAl?$AAf?$AA_?$AA6?$AA4?$AA_?$AAa?$AAm@ 00000001800647a0     LIBCMTD:initnum.obj
 0002:0000c810       ??_C@_1DM@IFKAINNE@?$AAp?$AAl?$AAo?$AAc?$AAi?$AA?9?$AA?$DO?$AAl?$AAc?$AAo?$AAn?$AAv?$AA_?$AAn?$AAu?$AAm?$AA_?$AAr?$AAe?$AAf?$AAc?$AAo?$AAu?$AAn?$AAt?$AA?5?$AA?$DO?$AA?5?$AA0?$AA?$AA@ 0000000180064810     LIBCMTD:initnum.obj
 0002:0000c850       ??_C@_0DG@EMCHMOHL@f?3?2dd?2vctools?2crt_bld?2self_64_am@ 0000000180064850     LIBCMTD:initnum.obj
 0002:0000c890       ??_C@_1GM@PDPOIHME@?$AAf?$AA?3?$AA?2?$AAd?$AAd?$AA?2?$AAv?$AAc?$AAt?$AAo?$AAo?$AAl?$AAs?$AA?2?$AAc?$AAr?$AAt?$AA_?$AAb?$AAl?$AAd?$AA?2?$AAs?$AAe?$AAl?$AAf?$AA_?$AA6?$AA4?$AA_?$AAa?$AAm@ 0000000180064890     LIBCMTD:initmon.obj
 0002:0000c900       ??_C@_1DM@GKAPAMDO@?$AAp?$AAl?$AAo?$AAc?$AAi?$AA?9?$AA?$DO?$AAl?$AAc?$AAo?$AAn?$AAv?$AA_?$AAm?$AAo?$AAn?$AA_?$AAr?$AAe?$AAf?$AAc?$AAo?$AAu?$AAn?$AAt?$AA?5?$AA?$DO?$AA?5?$AA0?$AA?$AA@ 0000000180064900     LIBCMTD:initmon.obj
 0002:0000c940       ??_C@_0DG@PCFGJMBI@f?3?2dd?2vctools?2crt_bld?2self_64_am@ 0000000180064940     LIBCMTD:initmon.obj
 0002:0000c978       ??_C@_1BC@HGPNAKGC@?$AAs?$AAt?$AAr?$AAc?$AAa?$AAt?$AA_?$AAs?$AA?$AA@ 0000000180064978     LIBCMTD:strcat_s.obj
 0002:0000c990       ??_C@_0O@FMJNFNKE@united?9states?$AA@ 0000000180064990     LIBCMTD:getqloc.obj
 0002:0000c9a0       ??_C@_0P@NDHFFKCA@united?9kingdom?$AA@ 00000001800649a0     LIBCMTD:getqloc.obj
 0002:0000c9b0       ??_C@_0BC@HHDADLGF@trinidad?5?$CG?5tobago?$AA@ 00000001800649b0     LIBCMTD:getqloc.obj
 0002:0000c9c8       ??_C@_0M@IOAEBDAC@south?9korea?$AA@ 00000001800649c8     LIBCMTD:getqloc.obj
 0002:0000c9d8       ??_C@_0N@FIELFKIJ@south?9africa?$AA@ 00000001800649d8     LIBCMTD:getqloc.obj
 0002:0000c9e8       ??_C@_0M@OPNDHCMC@south?5korea?$AA@ 00000001800649e8     LIBCMTD:getqloc.obj
 0002:0000c9f8       ??_C@_0N@MDEOEPFI@south?5africa?$AA@ 00000001800649f8     LIBCMTD:getqloc.obj
 0002:0000ca08       ??_C@_06FKAPCJLB@slovak?$AA@ 0000000180064a08     LIBCMTD:getqloc.obj
 0002:0000ca10       ??_C@_0M@EFJANOAL@puerto?9rico?$AA@ 0000000180064a10     LIBCMTD:getqloc.obj
 0002:0000ca20       ??_C@_08PGOJKDAI@pr?9china?$AA@ 0000000180064a20     LIBCMTD:getqloc.obj
 0002:0000ca30       ??_C@_08JHDOMCMI@pr?5china?$AA@ 0000000180064a30     LIBCMTD:getqloc.obj
 0002:0000ca3c       ??_C@_02JHCHFBLL@nz?$AA@   0000000180064a3c     LIBCMTD:getqloc.obj
 0002:0000ca40       ??_C@_0M@LINHDHKP@new?9zealand?$AA@ 0000000180064a40     LIBCMTD:getqloc.obj
 0002:0000ca50       ??_C@_09IIIPPBDB@hong?9kong?$AA@ 0000000180064a50     LIBCMTD:getqloc.obj
 0002:0000ca60       ??_C@_07HJLCKBG@holland?$AA@ 0000000180064a60     LIBCMTD:getqloc.obj
 0002:0000ca68       ??_C@_0O@LEHGMHAG@great?5britain?$AA@ 0000000180064a68     LIBCMTD:getqloc.obj
 0002:0000ca78       ??_C@_07FACOMELA@england?$AA@ 0000000180064a78     LIBCMTD:getqloc.obj
 0002:0000ca80       ??_C@_05JIHCEICB@czech?$AA@ 0000000180064a80     LIBCMTD:getqloc.obj
 0002:0000ca88       ??_C@_05BBJOBLGB@china?$AA@ 0000000180064a88     LIBCMTD:getqloc.obj
 0002:0000ca90       ??_C@_07GPKPHICP@britain?$AA@ 0000000180064a90     LIBCMTD:getqloc.obj
 0002:0000ca98       ??_C@_07MHIPBHMG@america?$AA@ 0000000180064a98     LIBCMTD:getqloc.obj
 0002:0000caa0       ??_C@_03KIALPMKC@usa?$AA@  0000000180064aa0     LIBCMTD:getqloc.obj
 0002:0000caa4       ??_C@_02FGJGKGGD@us?$AA@   0000000180064aa4     LIBCMTD:getqloc.obj
 0002:0000caa8       ??_C@_02NEINDODK@uk?$AA@   0000000180064aa8     LIBCMTD:getqloc.obj
 0002:0000caac       ??_C@_05JMPCFJFJ@swiss?$AA@ 0000000180064aac     LIBCMTD:getqloc.obj
 0002:0000cab8       ??_C@_0BA@HLOCPIOD@swedish?9finland?$AA@ 0000000180064ab8     LIBCMTD:getqloc.obj
 0002:0000cac8       ??_C@_0BC@PKCNIABK@spanish?9venezuela?$AA@ 0000000180064ac8     LIBCMTD:getqloc.obj
 0002:0000cae0       ??_C@_0BA@GBHHMIJI@spanish?9uruguay?$AA@ 0000000180064ae0     LIBCMTD:getqloc.obj
 0002:0000caf0       ??_C@_0BE@BHDOHPMC@spanish?9puerto?5rico?$AA@ 0000000180064af0     LIBCMTD:getqloc.obj
 0002:0000cb08       ??_C@_0N@KMOIDGGN@spanish?9peru?$AA@ 0000000180064b08     LIBCMTD:getqloc.obj
 0002:0000cb18       ??_C@_0BB@HMHLPGPH@spanish?9paraguay?$AA@ 0000000180064b18     LIBCMTD:getqloc.obj
 0002:0000cb30       ??_C@_0P@MCPKNGFD@spanish?9panama?$AA@ 0000000180064b30     LIBCMTD:getqloc.obj
 0002:0000cb40       ??_C@_0BC@IHOHGAIL@spanish?9nicaragua?$AA@ 0000000180064b40     LIBCMTD:getqloc.obj
 0002:0000cb58       ??_C@_0P@KLMJDNFJ@spanish?9modern?$AA@ 0000000180064b58     LIBCMTD:getqloc.obj
 0002:0000cb68       ??_C@_0BA@BPAPGBCM@spanish?9mexican?$AA@ 0000000180064b68     LIBCMTD:getqloc.obj
 0002:0000cb78       ??_C@_0BB@PDECHHHE@spanish?9honduras?$AA@ 0000000180064b78     LIBCMTD:getqloc.obj
 0002:0000cb90       ??_C@_0BC@KLHKFGDB@spanish?9guatemala?$AA@ 0000000180064b90     LIBCMTD:getqloc.obj
 0002:0000cba8       ??_C@_0BE@MFOOKJAI@spanish?9el?5salvador?$AA@ 0000000180064ba8     LIBCMTD:getqloc.obj
 0002:0000cbc0       ??_C@_0BA@FCOKFPFC@spanish?9ecuador?$AA@ 0000000180064bc0     LIBCMTD:getqloc.obj
 0002:0000cbd0       ??_C@_0BL@PLMGIMOO@spanish?9dominican?5republic?$AA@ 0000000180064bd0     LIBCMTD:getqloc.obj
 0002:0000cbf0       ??_C@_0BD@HLGDNMHB@spanish?9costa?5rica?$AA@ 0000000180064bf0     LIBCMTD:getqloc.obj
 0002:0000cc08       ??_C@_0BB@PKCBKCPE@spanish?9colombia?$AA@ 0000000180064c08     LIBCMTD:getqloc.obj
 0002:0000cc20       ??_C@_0O@MCBIJGNE@spanish?9chile?$AA@ 0000000180064c20     LIBCMTD:getqloc.obj
 0002:0000cc30       ??_C@_0BA@BEFEIGJJ@spanish?9bolivia?$AA@ 0000000180064c30     LIBCMTD:getqloc.obj
 0002:0000cc40       ??_C@_0BC@EMECMPD@spanish?9argentina?$AA@ 0000000180064c40     LIBCMTD:getqloc.obj
 0002:0000cc58       ??_C@_0BF@EALFLENP@portuguese?9brazilian?$AA@ 0000000180064c58     LIBCMTD:getqloc.obj
 0002:0000cc70       ??_C@_0BC@HBLEBLNN@norwegian?9nynorsk?$AA@ 0000000180064c70     LIBCMTD:getqloc.obj
 0002:0000cc88       ??_C@_0BB@HMACDDCK@norwegian?9bokmal?$AA@ 0000000180064c88     LIBCMTD:getqloc.obj
 0002:0000cca0       ??_C@_09BAFFPPHE@norwegian?$AA@ 0000000180064ca0     LIBCMTD:getqloc.obj
 0002:0000ccb0       ??_C@_0O@EAJFJDFG@italian?9swiss?$AA@ 0000000180064cb0     LIBCMTD:getqloc.obj
 0002:0000ccc0       ??_C@_0O@CNOMPGD@irish?9english?$AA@ 0000000180064cc0     LIBCMTD:getqloc.obj
 0002:0000ccd0       ??_C@_0N@EDHBGCKG@german?9swiss?$AA@ 0000000180064cd0     LIBCMTD:getqloc.obj
 0002:0000cce0       ??_C@_0BC@JACMHNBP@german?9luxembourg?$AA@ 0000000180064ce0     LIBCMTD:getqloc.obj
 0002:0000ccf8       ??_C@_0BE@HBGMGFEG@german?9lichtenstein?$AA@ 0000000180064cf8     LIBCMTD:getqloc.obj
 0002:0000cd10       ??_C@_0BA@HKKBIBKL@german?9austrian?$AA@ 0000000180064d10     LIBCMTD:getqloc.obj
 0002:0000cd20       ??_C@_0N@GCAEPEBK@french?9swiss?$AA@ 0000000180064d20     LIBCMTD:getqloc.obj
 0002:0000cd30       ??_C@_0BC@DJFJJCK@french?9luxembourg?$AA@ 0000000180064d30     LIBCMTD:getqloc.obj
 0002:0000cd48       ??_C@_0BA@NNCEDFIC@french?9canadian?$AA@ 0000000180064d48     LIBCMTD:getqloc.obj
 0002:0000cd58       ??_C@_0P@CMPOCLM@french?9belgian?$AA@ 0000000180064d58     LIBCMTD:getqloc.obj
 0002:0000cd68       ??_C@_0M@GHHDJOK@english?9usa?$AA@ 0000000180064d68     LIBCMTD:getqloc.obj
 0002:0000cd78       ??_C@_0L@PLDJKEIL@english?9us?$AA@ 0000000180064d78     LIBCMTD:getqloc.obj
 0002:0000cd88       ??_C@_0L@HJCCDMNC@english?9uk?$AA@ 0000000180064d88     LIBCMTD:getqloc.obj
 0002:0000cd98       ??_C@_0BK@CKLIAGJB@english?9trinidad?5y?5tobago?$AA@ 0000000180064d98     LIBCMTD:getqloc.obj
 0002:0000cdb8       ??_C@_0BF@JMJMGNNF@english?9south?5africa?$AA@ 0000000180064db8     LIBCMTD:getqloc.obj
 0002:0000cdd0       ??_C@_0L@DKIIFDFD@english?9nz?$AA@ 0000000180064dd0     LIBCMTD:getqloc.obj
 0002:0000cde0       ??_C@_0BA@ONHGJCLH@english?9jamaica?$AA@ 0000000180064de0     LIBCMTD:getqloc.obj
 0002:0000cdf0       ??_C@_0M@HJBGHOPO@english?9ire?$AA@ 0000000180064df0     LIBCMTD:getqloc.obj
 0002:0000ce00       ??_C@_0BC@LFEKMIFB@english?9caribbean?$AA@ 0000000180064e00     LIBCMTD:getqloc.obj
 0002:0000ce18       ??_C@_0M@OLDPFKHI@english?9can?$AA@ 0000000180064e18     LIBCMTD:getqloc.obj
 0002:0000ce28       ??_C@_0P@OMDEHBMP@english?9belize?$AA@ 0000000180064e28     LIBCMTD:getqloc.obj
 0002:0000ce38       ??_C@_0M@KFHFPFED@english?9aus?$AA@ 0000000180064e38     LIBCMTD:getqloc.obj
 0002:0000ce48       ??_C@_0BB@MNMBKDFE@english?9american?$AA@ 0000000180064e48     LIBCMTD:getqloc.obj
 0002:0000ce60       ??_C@_0O@KIDLNNBA@dutch?9belgian?$AA@ 0000000180064e60     LIBCMTD:getqloc.obj
 0002:0000ce70       ??_C@_0BE@JBKABBMH@chinese?9traditional?$AA@ 0000000180064e70     LIBCMTD:getqloc.obj
 0002:0000ce88       ??_C@_0BC@MJJMPKCG@chinese?9singapore?$AA@ 0000000180064e88     LIBCMTD:getqloc.obj
 0002:0000cea0       ??_C@_0BD@FDKADDCP@chinese?9simplified?$AA@ 0000000180064ea0     LIBCMTD:getqloc.obj
 0002:0000ceb8       ??_C@_0BB@DBEFDDME@chinese?9hongkong?$AA@ 0000000180064eb8     LIBCMTD:getqloc.obj
 0002:0000ced0       ??_C@_07DHNMFMCI@chinese?$AA@ 0000000180064ed0     LIBCMTD:getqloc.obj
 0002:0000ced8       ??_C@_03FNDDCHI@chi?$AA@   0000000180064ed8     LIBCMTD:getqloc.obj
 0002:0000cedc       ??_C@_03BMMIADDJ@chh?$AA@  0000000180064edc     LIBCMTD:getqloc.obj
 0002:0000cee0       ??_C@_08OAIPJDGI@canadian?$AA@ 0000000180064ee0     LIBCMTD:getqloc.obj
 0002:0000cef0       ??_C@_07HBPMNPNJ@belgian?$AA@ 0000000180064ef0     LIBCMTD:getqloc.obj
 0002:0000cef8       ??_C@_0L@OEKOPBEL@australian?$AA@ 0000000180064ef8     LIBCMTD:getqloc.obj
 0002:0000cf08       ??_C@_0BB@MEIMBEDG@american?9english?$AA@ 0000000180064f08     LIBCMTD:getqloc.obj
 0002:0000cf20       ??_C@_0BB@DFMDPDGB@american?5english?$AA@ 0000000180064f20     LIBCMTD:getqloc.obj
 0002:0000cf38       ??_C@_08IJLOKOLL@american?$AA@ 0000000180064f38     LIBCMTD:getqloc.obj
 0002:0000cf50       __rg_language              0000000180064f50     LIBCMTD:getqloc.obj
 0002:0000d360       __rg_country               0000000180065360     LIBCMTD:getqloc.obj
 0002:0000d4d0       __rglangidNotDefault       00000001800654d0     LIBCMTD:getqloc.obj
 0002:0000d4f0       ??_C@_1OM@OECHDGCF@?$AAs?$AAt?$AAr?$AAc?$AAp?$AAy?$AA_?$AAs?$AA?$CI?$AAl?$AAp?$AAO?$AAu?$AAt?$AAS?$AAt?$AAr?$AA?9?$AA?$DO?$AAs?$AAz?$AAL?$AAa?$AAn?$AAg?$AAu?$AAa?$AAg?$AAe?$AA?0?$AA?5?$AA?$CI@ 00000001800654f0     LIBCMTD:getqloc.obj
 0002:0000d5e0       ??_C@_1CO@NJACLALJ@?$AA_?$AA_?$AAg?$AAe?$AAt?$AA_?$AAq?$AAu?$AAa?$AAl?$AAi?$AAf?$AAi?$AAe?$AAd?$AA_?$AAl?$AAo?$AAc?$AAa?$AAl?$AAe?$AA?$AA@ 00000001800655e0     LIBCMTD:getqloc.obj
 0002:0000d610       ??_C@_1GM@HMLPPENJ@?$AAf?$AA?3?$AA?2?$AAd?$AAd?$AA?2?$AAv?$AAc?$AAt?$AAo?$AAo?$AAl?$AAs?$AA?2?$AAc?$AAr?$AAt?$AA_?$AAb?$AAl?$AAd?$AA?2?$AAs?$AAe?$AAl?$AAf?$AA_?$AA6?$AA4?$AA_?$AAa?$AAm@ 0000000180065610     LIBCMTD:getqloc.obj
 0002:0000d680       ??_C@_0BC@NFIEMBLL@Norwegian?9Nynorsk?$AA@ 0000000180065680     LIBCMTD:getqloc.obj
 0002:0000d694       ??_C@_03NFKLAGEF@OCP?$AA@  0000000180065694     LIBCMTD:getqloc.obj
 0002:0000d698       ??_C@_03DFHEHBHG@ACP?$AA@  0000000180065698     LIBCMTD:getqloc.obj
 0002:0000d6a0       ??_C@_1BA@LEBDGIHM@?$AA_?$AAi?$AAs?$AAa?$AAt?$AAt?$AAy?$AA?$AA@ 00000001800656a0     LIBCMTD:isatty.obj
 0002:0000d6b0       ??_C@_1GK@NBOOCPHJ@?$AAf?$AA?3?$AA?2?$AAd?$AAd?$AA?2?$AAv?$AAc?$AAt?$AAo?$AAo?$AAl?$AAs?$AA?2?$AAc?$AAr?$AAt?$AA_?$AAb?$AAl?$AAd?$AA?2?$AAs?$AAe?$AAl?$AAf?$AA_?$AA6?$AA4?$AA_?$AAa?$AAm@ 00000001800656b0     LIBCMTD:isatty.obj
 0002:0000d720       ??_C@_1BI@IEADNOHF@?$AA_?$AAw?$AAc?$AAt?$AAo?$AAm?$AAb?$AA_?$AAs?$AA_?$AAl?$AA?$AA@ 0000000180065720     LIBCMTD:wctomb.obj
 0002:0000d740       ??_C@_1GK@GFLGMDNK@?$AAf?$AA?3?$AA?2?$AAd?$AAd?$AA?2?$AAv?$AAc?$AAt?$AAo?$AAo?$AAl?$AAs?$AA?2?$AAc?$AAr?$AAt?$AA_?$AAb?$AAl?$AAd?$AA?2?$AAs?$AAe?$AAl?$AAf?$AA_?$AA6?$AA4?$AA_?$AAa?$AAm@ 0000000180065740     LIBCMTD:wctomb.obj
 0002:0000d7b0       ??_C@_1CO@HFMIILNF@?$AAs?$AAi?$AAz?$AAe?$AAI?$AAn?$AAB?$AAy?$AAt?$AAe?$AAs?$AA?5?$AA?$DM?$AA?$DN?$AA?5?$AAI?$AAN?$AAT?$AA_?$AAM?$AAA?$AAX?$AA?$AA@ 00000001800657b0     LIBCMTD:wctomb.obj
 0002:0000d7e0       __lookuptable_s            00000001800657e0     LIBCMTD:outputs.obj
 0002:0000d840       ??_C@_1FK@LNCFKALM@?$AA?$CI?$AA?$CI?$AAs?$AAt?$AAa?$AAt?$AAe?$AA?5?$AA?$DN?$AA?$DN?$AA?5?$AAS?$AAT?$AA_?$AAN?$AAO?$AAR?$AAM?$AAA?$AAL?$AA?$CJ?$AA?5?$AA?$HM?$AA?$HM?$AA?5?$AA?$CI?$AAs?$AAt?$AAa?$AAt?$AAe?$AA?5@ 0000000180065840     LIBCMTD:outputs.obj
 0002:0000d8a0       ??_C@_1EE@DMAIGNBG@?$AA?$CI?$AA?$CC?$AAI?$AAn?$AAc?$AAo?$AAr?$AAr?$AAe?$AAc?$AAt?$AA?5?$AAf?$AAo?$AAr?$AAm?$AAa?$AAt?$AA?5?$AAs?$AAp?$AAe?$AAc?$AAi?$AAf?$AAi?$AAe?$AAr?$AA?$CC?$AA?0?$AA?5?$AA0@ 00000001800658a0     LIBCMTD:outputs.obj
 0002:0000d8e8       ??_C@_1BI@COFBLHCG@?$AA_?$AAo?$AAu?$AAt?$AAp?$AAu?$AAt?$AA_?$AAs?$AA_?$AAl?$AA?$AA@ 00000001800658e8     LIBCMTD:outputs.obj
 0002:0000d900       ??_C@_0DG@EONGNBGB@f?3?2dd?2vctools?2crt_bld?2self_64_am@ 0000000180065900     LIBCMTD:osfinfo.obj
 0002:0000d938       ??_C@_1BO@EMBOBGKE@?$AA_?$AAg?$AAe?$AAt?$AA_?$AAo?$AAs?$AAf?$AAh?$AAa?$AAn?$AAd?$AAl?$AAe?$AA?$AA@ 0000000180065938     LIBCMTD:osfinfo.obj
 0002:0000d960       ??_C@_1GM@LCFGFLEL@?$AAf?$AA?3?$AA?2?$AAd?$AAd?$AA?2?$AAv?$AAc?$AAt?$AAo?$AAo?$AAl?$AAs?$AA?2?$AAc?$AAr?$AAt?$AA_?$AAb?$AAl?$AAd?$AA?2?$AAs?$AAe?$AAl?$AAf?$AA_?$AA6?$AA4?$AA_?$AAa?$AAm@ 0000000180065960     LIBCMTD:osfinfo.obj
 0002:0000d9d0       ??_C@_1GK@LNONKGD@?$AAf?$AA?3?$AA?2?$AAd?$AAd?$AA?2?$AAv?$AAc?$AAt?$AAo?$AAo?$AAl?$AAs?$AA?2?$AAc?$AAr?$AAt?$AA_?$AAb?$AAl?$AAd?$AA?2?$AAs?$AAe?$AAl?$AAf?$AA_?$AA6?$AA4?$AA_?$AAa?$AAm@ 00000001800659d0     LIBCMTD:mbtowc.obj
 0002:0000da40       ??_C@_1NC@EINCOKCO@?$AA_?$AAl?$AAo?$AAc?$AA_?$AAu?$AAp?$AAd?$AAa?$AAt?$AAe?$AA?4?$AAG?$AAe?$AAt?$AAL?$AAo?$AAc?$AAa?$AAl?$AAe?$AAT?$AA?$CI?$AA?$CJ?$AA?9?$AA?$DO?$AAl?$AAo?$AAc?$AAi?$AAn?$AAf@ 0000000180065a40     LIBCMTD:mbtowc.obj
 0002:0000db18       ??_C@_1CC@HBLPFNKH@?$AA?$CI?$AAc?$AAn?$AAt?$AA?5?$AA?$DM?$AA?$DN?$AA?5?$AAI?$AAN?$AAT?$AA_?$AAM?$AAA?$AAX?$AA?$CJ?$AA?$AA@ 0000000180065b18     LIBCMTD:read.obj
 0002:0000db40       ??_C@_1M@NHJOLLDM@?$AA_?$AAr?$AAe?$AAa?$AAd?$AA?$AA@ 0000000180065b40     LIBCMTD:read.obj
 0002:0000db50       ??_C@_1GG@KJCMOJMC@?$AAf?$AA?3?$AA?2?$AAd?$AAd?$AA?2?$AAv?$AAc?$AAt?$AAo?$AAo?$AAl?$AAs?$AA?2?$AAc?$AAr?$AAt?$AA_?$AAb?$AAl?$AAd?$AA?2?$AAs?$AAe?$AAl?$AAf?$AA_?$AA6?$AA4?$AA_?$AAa?$AAm@ 0000000180065b50     LIBCMTD:read.obj
 0002:0000dbb8       ??_C@_0DD@PGLLFABO@f?3?2dd?2vctools?2crt_bld?2self_64_am@ 0000000180065bb8     LIBCMTD:read.obj
 0002:0000dbf0       ??_C@_1CG@OHLJHGGK@?$AA?$CI?$AAi?$AAn?$AAp?$AAu?$AAt?$AAb?$AAu?$AAf?$AA?5?$AA?$CB?$AA?$DN?$AA?5?$AAN?$AAU?$AAL?$AAL?$AA?$CJ?$AA?$AA@ 0000000180065bf0     LIBCMTD:read.obj
 0002:0000dc18       ??_C@_1BK@JJBHNDKJ@?$AA_?$AAr?$AAe?$AAa?$AAd?$AA_?$AAn?$AAo?$AAl?$AAo?$AAc?$AAk?$AA?$AA@ 0000000180065c18     LIBCMTD:read.obj
 0002:0000dc38       ??_C@_0BK@CFCOFLF@?5Complete?5Object?5Locator?8?$AA@ 0000000180065c38     LIBCMTD:undname.obj
 0002:0000dc58       ??_C@_0BN@MECKDCOJ@?5Class?5Hierarchy?5Descriptor?8?$AA@ 0000000180065c58     LIBCMTD:undname.obj
 0002:0000dc78       ??_C@_0BD@LGICGFMM@?5Base?5Class?5Array?8?$AA@ 0000000180065c78     LIBCMTD:undname.obj
 0002:0000dc90       ??_C@_0BM@LDKODKLH@?5Base?5Class?5Descriptor?5at?5?$CI?$AA@ 0000000180065c90     LIBCMTD:undname.obj
 0002:0000dcb0       ??_C@_0BC@DAFEJGAK@?5Type?5Descriptor?8?$AA@ 0000000180065cb0     LIBCMTD:undname.obj
 0002:0000dcc8       ??_C@_0BM@PMGGMLDN@?$GAlocal?5static?5thread?5guard?8?$AA@ 0000000180065cc8     LIBCMTD:undname.obj
 0002:0000dce8       ??_C@_0CL@FGIJHLCE@?$GAmanaged?5vector?5copy?5constructor@ 0000000180065ce8     LIBCMTD:undname.obj
 0002:0000dd18       ??_C@_0CJ@GJELGAMM@?$GAvector?5vbase?5copy?5constructor?5i@ 0000000180065d18     LIBCMTD:undname.obj
 0002:0000dd48       ??_C@_0CD@CGAJBKEJ@?$GAvector?5copy?5constructor?5iterato@ 0000000180065d48     LIBCMTD:undname.obj
 0002:0000dd70       ??_C@_0CB@PDBIFEP@?$GAdynamic?5atexit?5destructor?5for?5?8@ 0000000180065d70     LIBCMTD:undname.obj
 0002:0000dd98       ??_C@_0BL@CLIPGLGB@?$GAdynamic?5initializer?5for?5?8?$AA@ 0000000180065d98     LIBCMTD:undname.obj
 0002:0000ddb8       ??_C@_0CM@FCBBDIGB@?$GAeh?5vector?5vbase?5copy?5constructo@ 0000000180065db8     LIBCMTD:undname.obj
 0002:0000dde8       ??_C@_0CG@HLDDJMAG@?$GAeh?5vector?5copy?5constructor?5iter@ 0000000180065de8     LIBCMTD:undname.obj
 0002:0000de10       ??_C@_0CF@IMGKMJNO@?$GAmanaged?5vector?5destructor?5itera@ 0000000180065e10     LIBCMTD:undname.obj
 0002:0000de38       ??_C@_0CG@CFDHKGGD@?$GAmanaged?5vector?5constructor?5iter@ 0000000180065e38     LIBCMTD:undname.obj
 0002:0000de60       ??_C@_0BN@CKNJLHMB@?$GAplacement?5delete?$FL?$FN?5closure?8?$AA@ 0000000180065e60     LIBCMTD:undname.obj
 0002:0000de80       ??_C@_0BL@CNOONJFP@?$GAplacement?5delete?5closure?8?$AA@ 0000000180065e80     LIBCMTD:undname.obj
 0002:0000dea0       ??_C@_0P@HJKNJFNN@?$GAomni?5callsig?8?$AA@ 0000000180065ea0     LIBCMTD:undname.obj
 0002:0000deb0       ??_C@_09LBNFPBCA@?5delete?$FL?$FN?$AA@ 0000000180065eb0     LIBCMTD:undname.obj
 0002:0000debc       ??_C@_06FHBGPFGH@?5new?$FL?$FN?$AA@ 0000000180065ebc     LIBCMTD:undname.obj
 0002:0000dec8       ??_C@_0CE@IIHCMGGL@?$GAlocal?5vftable?5constructor?5closu@ 0000000180065ec8     LIBCMTD:undname.obj
 0002:0000def0       ??_C@_0BA@KKLDJDLB@?$GAlocal?5vftable?8?$AA@ 0000000180065ef0     LIBCMTD:undname.obj
 0002:0000df00       ??_C@_05KHLCHHI@?$GARTTI?$AA@ 0000000180065f00     LIBCMTD:undname.obj
 0002:0000df08       ??_C@_03KLGMFNMG@?$GAEH?$AA@ 0000000180065f08     LIBCMTD:undname.obj
 0002:0000df10       ??_C@_0BA@KBCDOMBN@?$GAudt?5returning?8?$AA@ 0000000180065f10     LIBCMTD:undname.obj
 0002:0000df20       ??_C@_0BL@LLKPOHJI@?$GAcopy?5constructor?5closure?8?$AA@ 0000000180065f20     LIBCMTD:undname.obj
 0002:0000df40       ??_C@_0CH@OOJPLCPH@?$GAeh?5vector?5vbase?5constructor?5ite@ 0000000180065f40     LIBCMTD:undname.obj
 0002:0000df68       ??_C@_0CA@GCEOPDGL@?$GAeh?5vector?5destructor?5iterator?8?$AA@ 0000000180065f68     LIBCMTD:undname.obj
 0002:0000df88       ??_C@_0CB@JONCMFFK@?$GAeh?5vector?5constructor?5iterator?8@ 0000000180065f88     LIBCMTD:undname.obj
 0002:0000dfb0       ??_C@_0BL@NILFHHPC@?$GAvirtual?5displacement?5map?8?$AA@ 0000000180065fb0     LIBCMTD:undname.obj
 0002:0000dfd0       ??_C@_0CE@IKBNEHA@?$GAvector?5vbase?5constructor?5iterat@ 0000000180065fd0     LIBCMTD:undname.obj
 0002:0000dff8       ??_C@_0BN@LFPFMEDL@?$GAvector?5destructor?5iterator?8?$AA@ 0000000180065ff8     LIBCMTD:undname.obj
 0002:0000e018       ??_C@_0BO@PFGOCPJJ@?$GAvector?5constructor?5iterator?8?$AA@ 0000000180066018     LIBCMTD:undname.obj
 0002:0000e038       ??_C@_0BN@IMDCHIKM@?$GAscalar?5deleting?5destructor?8?$AA@ 0000000180066038     LIBCMTD:undname.obj
 0002:0000e058       ??_C@_0BO@OBMKPJIG@?$GAdefault?5constructor?5closure?8?$AA@ 0000000180066058     LIBCMTD:undname.obj
 0002:0000e078       ??_C@_0BN@DEGPLNFK@?$GAvector?5deleting?5destructor?8?$AA@ 0000000180066078     LIBCMTD:undname.obj
 0002:0000e098       ??_C@_0BD@JDLKDPAB@?$GAvbase?5destructor?8?$AA@ 0000000180066098     LIBCMTD:undname.obj
 0002:0000e0b0       ??_C@_08OBABFOLI@?$GAstring?8?$AA@ 00000001800660b0     LIBCMTD:undname.obj
 0002:0000e0c0       ??_C@_0BF@KDPPACIK@?$GAlocal?5static?5guard?8?$AA@ 00000001800660c0     LIBCMTD:undname.obj
 0002:0000e0d8       ??_C@_08LLFFHHDJ@?$GAtypeof?8?$AA@ 00000001800660d8     LIBCMTD:undname.obj
 0002:0000e0e8       ??_C@_07FEEIOKP@?$GAvcall?8?$AA@ 00000001800660e8     LIBCMTD:undname.obj
 0002:0000e0f0       ??_C@_09BLBHBJP@?$GAvbtable?8?$AA@ 00000001800660f0     LIBCMTD:undname.obj
 0002:0000e100       ??_C@_09IFPLHPGF@?$GAvftable?8?$AA@ 0000000180066100     LIBCMTD:undname.obj
 0002:0000e10c       ??_C@_02MHEGNOJ@?$FO?$DN?$AA@ 000000018006610c     LIBCMTD:undname.obj
 0002:0000e110       ??_C@_02DHLNPPGH@?$HM?$DN?$AA@ 0000000180066110     LIBCMTD:undname.obj
 0002:0000e114       ??_C@_02FGJGFEAB@?$CG?$DN?$AA@ 0000000180066114     LIBCMTD:undname.obj
 0002:0000e118       ??_C@_03CDNPDDLA@?$DM?$DM?$DN?$AA@ 0000000180066118     LIBCMTD:undname.obj
 0002:0000e11c       ??_C@_03IKFCCPFF@?$DO?$DO?$DN?$AA@ 000000018006611c     LIBCMTD:undname.obj
 0002:0000e120       ??_C@_02FENAOKFI@?$CF?$DN?$AA@ 0000000180066120     LIBCMTD:undname.obj
 0002:0000e124       ??_C@_02FJEHGPIO@?1?$DN?$AA@ 0000000180066124     LIBCMTD:undname.obj
 0002:0000e128       ??_C@_02FKMDLLOA@?9?$DN?$AA@ 0000000180066128     LIBCMTD:undname.obj
 0002:0000e12c       ??_C@_02FOEOMHFC@?$CL?$DN?$AA@ 000000018006612c     LIBCMTD:undname.obj
 0002:0000e130       ??_C@_02FPIMKNGF@?$CK?$DN?$AA@ 0000000180066130     LIBCMTD:undname.obj
 0002:0000e134       ??_C@_02NONPIBCD@?$HM?$HM?$AA@ 0000000180066134     LIBCMTD:undname.obj
 0002:0000e138       ??_C@_02PPKAJPJL@?$CG?$CG?$AA@ 0000000180066138     LIBCMTD:undname.obj
 0002:0000e13c       ??_C@_01DNKMNLPK@?$HM?$AA@ 000000018006613c     LIBCMTD:undname.obj
 0002:0000e140       ??_C@_01JKBOJNNK@?$FO?$AA@ 0000000180066140     LIBCMTD:undname.obj
 0002:0000e144       ??_C@_01PJKLJHI@?$HO?$AA@  0000000180066144     LIBCMTD:undname.obj
 0002:0000e148       ??_C@_02HCKGKOFO@?$CI?$CJ?$AA@ 0000000180066148     LIBCMTD:undname.obj
 0002:0000e14c       ??_C@_01IHBHIGKO@?0?$AA@   000000018006614c     LIBCMTD:undname.obj
 0002:0000e150       ??_C@_02EEKDKGMJ@?$DO?$DN?$AA@ 0000000180066150     LIBCMTD:undname.obj
 0002:0000e154       ??_C@_01PPODPGHN@?$DO?$AA@ 0000000180066154     LIBCMTD:undname.obj
 0002:0000e158       ??_C@_02EHCHHCKH@?$DM?$DN?$AA@ 0000000180066158     LIBCMTD:undname.obj
 0002:0000e15c       ??_C@_01MNNFJEPP@?$DM?$AA@ 000000018006615c     LIBCMTD:undname.obj
 0002:0000e160       ??_C@_01FGNFDNOH@?$CF?$AA@ 0000000180066160     LIBCMTD:undname.obj
 0002:0000e164       ??_C@_01KMDKNFGN@?1?$AA@   0000000180066164     LIBCMTD:undname.obj
 0002:0000e168       ??_C@_03MNHNFDLC@?9?$DO?$CK?$AA@ 0000000180066168     LIBCMTD:undname.obj
 0002:0000e16c       ??_C@_01HNPIGOCE@?$CG?$AA@ 000000018006616c     LIBCMTD:undname.obj
 0002:0000e170       ??_C@_01MIFGBAGJ@?$CL?$AA@ 0000000180066170     LIBCMTD:undname.obj
 0002:0000e174       ??_C@_01JOAMLHOP@?9?$AA@   0000000180066174     LIBCMTD:undname.obj
 0002:0000e178       ??_C@_02BAABKJLB@?9?9?$AA@ 0000000180066178     LIBCMTD:undname.obj
 0002:0000e17c       ??_C@_02ECNGHCIF@?$CL?$CL?$AA@ 000000018006617c     LIBCMTD:undname.obj
 0002:0000e180       ??_C@_02HBOOOICD@?9?$DO?$AA@ 0000000180066180     LIBCMTD:undname.obj
 0002:0000e188       ??_C@_08LHJFAFGD@operator?$AA@ 0000000180066188     LIBCMTD:undname.obj
 0002:0000e194       ??_C@_02GPECMEKF@?$FL?$FN?$AA@ 0000000180066194     LIBCMTD:undname.obj
 0002:0000e198       ??_C@_02FDNJECIE@?$CB?$DN?$AA@ 0000000180066198     LIBCMTD:undname.obj
 0002:0000e19c       ??_C@_02EGOFBIJA@?$DN?$DN?$AA@ 000000018006619c     LIBCMTD:undname.obj
 0002:0000e1a0       ??_C@_01DCLJPIOD@?$CB?$AA@ 00000001800661a0     LIBCMTD:undname.obj
 0002:0000e1a4       ??_C@_02FODMEDOG@?$DM?$DM?$AA@ 00000001800661a4     LIBCMTD:undname.obj
 0002:0000e1a8       ??_C@_02GPIOPFAK@?$DO?$DO?$AA@ 00000001800661a8     LIBCMTD:undname.obj
 0002:0000e1b0       ??_C@_07FPCDHGMM@?5delete?$AA@ 00000001800661b0     LIBCMTD:undname.obj
 0002:0000e1b8       ??_C@_04NIHEBCM@?5new?$AA@ 00000001800661b8     LIBCMTD:undname.obj
 0002:0000e1c0       ??_C@_0M@GFIIJFMG@__unaligned?$AA@ 00000001800661c0     LIBCMTD:undname.obj
 0002:0000e1d0       ??_C@_0L@PILCLIHE@__restrict?$AA@ 00000001800661d0     LIBCMTD:undname.obj
 0002:0000e1e0       ??_C@_07JOMMBBKO@__ptr64?$AA@ 00000001800661e0     LIBCMTD:undname.obj
 0002:0000e1e8       ??_C@_06GHPCKEAG@__eabi?$AA@ 00000001800661e8     LIBCMTD:undname.obj
 0002:0000e1f0       ??_C@_09HIJEGCPM@__clrcall?$AA@ 00000001800661f0     LIBCMTD:undname.obj
 0002:0000e200       ??_C@_0L@JMKHOMEK@__fastcall?$AA@ 0000000180066200     LIBCMTD:undname.obj
 0002:0000e210       ??_C@_0L@NPHFGOKO@__thiscall?$AA@ 0000000180066210     LIBCMTD:undname.obj
 0002:0000e220       ??_C@_09IFJBGAPI@__stdcall?$AA@ 0000000180066220     LIBCMTD:undname.obj
 0002:0000e230       ??_C@_08GHMPAG@__pascal?$AA@ 0000000180066230     LIBCMTD:undname.obj
 0002:0000e240       ??_C@_07KOLFKCDI@__cdecl?$AA@ 0000000180066240     LIBCMTD:undname.obj
 0002:0000e248       ??_C@_08EHJDFFNH@__based?$CI?$AA@ 0000000180066248     LIBCMTD:undname.obj
 0002:0000e568       ??_C@_1CG@JEHFHLNG@?$AA_?$AAm?$AAb?$AAs?$AAt?$AAo?$AAw?$AAc?$AAs?$AA_?$AAl?$AA_?$AAh?$AAe?$AAl?$AAp?$AAe?$AAr?$AA?$AA@ 0000000180066568     LIBCMTD:mbstowcs.obj
 0002:0000e590       ??_C@_1GO@CFAJLDBM@?$AAf?$AA?3?$AA?2?$AAd?$AAd?$AA?2?$AAv?$AAc?$AAt?$AAo?$AAo?$AAl?$AAs?$AA?2?$AAc?$AAr?$AAt?$AA_?$AAb?$AAl?$AAd?$AA?2?$AAs?$AAe?$AAl?$AAf?$AA_?$AA6?$AA4?$AA_?$AAa?$AAm@ 0000000180066590     LIBCMTD:mbstowcs.obj
 0002:0000e600       ??_C@_1BE@EEKACIGI@?$AAs?$AA?5?$AA?$CB?$AA?$DN?$AA?5?$AAN?$AAU?$AAL?$AAL?$AA?$AA@ 0000000180066600     LIBCMTD:mbstowcs.obj
 0002:0000e618       ??_C@_1CO@JNPEPJAL@?$AAr?$AAe?$AAt?$AAs?$AAi?$AAz?$AAe?$AA?5?$AA?$DM?$AA?$DN?$AA?5?$AAs?$AAi?$AAz?$AAe?$AAI?$AAn?$AAW?$AAo?$AAr?$AAd?$AAs?$AA?$AA@ 0000000180066618     LIBCMTD:mbstowcs.obj
 0002:0000e648       ??_C@_1CM@LLECFMFH@?$AAb?$AAu?$AAf?$AAf?$AAe?$AAr?$AAS?$AAi?$AAz?$AAe?$AA?5?$AA?$DM?$AA?$DN?$AA?5?$AAI?$AAN?$AAT?$AA_?$AAM?$AAA?$AAX?$AA?$AA@ 0000000180066648     LIBCMTD:mbstowcs.obj
 0002:0000e678       ??_C@_1BM@PHENIGHD@?$AA_?$AAm?$AAb?$AAs?$AAt?$AAo?$AAw?$AAc?$AAs?$AA_?$AAs?$AA_?$AAl?$AA?$AA@ 0000000180066678     LIBCMTD:mbstowcs.obj
 0002:0000e6a0       ??_C@_1JA@JKDFMOPO@?$AA?$CI?$AAp?$AAw?$AAc?$AAs?$AA?5?$AA?$DN?$AA?$DN?$AA?5?$AAN?$AAU?$AAL?$AAL?$AA?5?$AA?$CG?$AA?$CG?$AA?5?$AAs?$AAi?$AAz?$AAe?$AAI?$AAn?$AAW?$AAo?$AAr?$AAd?$AAs?$AA?5?$AA?$DN?$AA?$DN?$AA?5@ 00000001800666a0     LIBCMTD:mbstowcs.obj
 0002:0000e730       ??_C@_1CG@LLJCAOHF@?$AA_?$AAw?$AAc?$AAs?$AAt?$AAo?$AAm?$AAb?$AAs?$AA_?$AAl?$AA_?$AAh?$AAe?$AAl?$AAp?$AAe?$AAr?$AA?$AA@ 0000000180066730     LIBCMTD:wcstombs.obj
 0002:0000e760       ??_C@_1GO@HHGHEDDI@?$AAf?$AA?3?$AA?2?$AAd?$AAd?$AA?2?$AAv?$AAc?$AAt?$AAo?$AAo?$AAl?$AAs?$AA?2?$AAc?$AAr?$AAt?$AA_?$AAb?$AAl?$AAd?$AA?2?$AAs?$AAe?$AAl?$AAf?$AA_?$AA6?$AA4?$AA_?$AAa?$AAm@ 0000000180066760     LIBCMTD:wcstombs.obj
 0002:0000e7d0       ??_C@_1BK@OIBENBPM@?$AAp?$AAw?$AAc?$AAs?$AA?5?$AA?$CB?$AA?$DN?$AA?5?$AAN?$AAU?$AAL?$AAL?$AA?$AA@ 00000001800667d0     LIBCMTD:wcstombs.obj
 0002:0000e7f0       ??_C@_1CM@KEOGBFLI@?$AAs?$AAi?$AAz?$AAe?$AAI?$AAn?$AAB?$AAy?$AAt?$AAe?$AAs?$AA?5?$AA?$DO?$AA?5?$AAr?$AAe?$AAt?$AAs?$AAi?$AAz?$AAe?$AA?$AA@ 00000001800667f0     LIBCMTD:wcstombs.obj
 0002:0000e820       ??_C@_1BM@BDMCLLDL@?$AA_?$AAw?$AAc?$AAs?$AAt?$AAo?$AAm?$AAb?$AAs?$AA_?$AAs?$AA_?$AAl?$AA?$AA@ 0000000180066820     LIBCMTD:wcstombs.obj
 0002:0000e840       ??_C@_1IM@MFGKHGBP@?$AA?$CI?$AAd?$AAs?$AAt?$AA?5?$AA?$CB?$AA?$DN?$AA?5?$AAN?$AAU?$AAL?$AAL?$AA?5?$AA?$CG?$AA?$CG?$AA?5?$AAs?$AAi?$AAz?$AAe?$AAI?$AAn?$AAB?$AAy?$AAt?$AAe?$AAs?$AA?5?$AA?$DO?$AA?5?$AA0?$AA?$CJ@ 0000000180066840     LIBCMTD:wcstombs.obj
 0002:0000e8d0       ??_C@_1BG@BBCDFOMA@?$AA_?$AAw?$AAo?$AAu?$AAt?$AAp?$AAu?$AAt?$AA_?$AAl?$AA?$AA@ 00000001800668d0     LIBCMTD:woutput.obj
 0002:0000e8e8       ??_C@_0BK@CIDNPOGP@GetUserObjectInformationA?$AA@ 00000001800668e8     LIBCMTD:crtmbox.obj
 0002:0000e908       ??_C@_0M@CHKKJDAI@MessageBoxA?$AA@ 0000000180066908     LIBCMTD:crtmbox.obj
 0002:0000e918       ??_C@_1BK@CLIEHFDF@?$AAp?$AAf?$AAl?$AAt?$AA?5?$AA?$CB?$AA?$DN?$AA?5?$AAN?$AAU?$AAL?$AAL?$AA?$AA@ 0000000180066918     LIBCMTD:_fptostr.obj
 0002:0000e940       ??_C@_1GM@CEDLGDDI@?$AAs?$AAi?$AAz?$AAe?$AAI?$AAn?$AAB?$AAy?$AAt?$AAe?$AAs?$AA?5?$AA?$DO?$AA?5?$AA?$CI?$AAs?$AAi?$AAz?$AAe?$AA_?$AAt?$AA?$CJ?$AA?$CI?$AA?$CI?$AAd?$AAi?$AAg?$AAi?$AAt?$AAs?$AA?5?$AA?$DO@ 0000000180066940     LIBCMTD:_fptostr.obj
 0002:0000e9b0       ??_C@_1BC@OPALLEB@?$AA_?$AAf?$AAp?$AAt?$AAo?$AAs?$AAt?$AAr?$AA?$AA@ 00000001800669b0     LIBCMTD:_fptostr.obj
 0002:0000e9d0       ??_C@_1GO@IEIEDFFF@?$AAf?$AA?3?$AA?2?$AAd?$AAd?$AA?2?$AAv?$AAc?$AAt?$AAo?$AAo?$AAl?$AAs?$AA?2?$AAc?$AAr?$AAt?$AA_?$AAb?$AAl?$AAd?$AA?2?$AAs?$AAe?$AAl?$AAf?$AA_?$AA6?$AA4?$AA_?$AAa?$AAm@ 00000001800669d0     LIBCMTD:_fptostr.obj
 0002:0000ea40       ??_C@_1FK@KODCOBKF@?$AAs?$AAt?$AAr?$AAc?$AAp?$AAy?$AA_?$AAs?$AA?$CI?$AAr?$AAe?$AAs?$AAu?$AAl?$AAt?$AAs?$AAt?$AAr?$AA?0?$AA?5?$AAr?$AAe?$AAs?$AAu?$AAl?$AAt?$AAs?$AAi?$AAz?$AAe?$AA?0?$AA?5@ 0000000180066a40     LIBCMTD:_cfout_.obj
 0002:0000eaa0       ??_C@_1BC@BPMMEHLK@?$AA_?$AAf?$AAl?$AAt?$AAo?$AAu?$AAt?$AA2?$AA?$AA@ 0000000180066aa0     LIBCMTD:_cfout_.obj
 0002:0000eac0       ??_C@_1HM@JLHEPEIG@?$AAf?$AA?3?$AA?2?$AAd?$AAd?$AA?2?$AAv?$AAc?$AAt?$AAo?$AAo?$AAl?$AAs?$AA?2?$AAc?$AAr?$AAt?$AA_?$AAb?$AAl?$AAd?$AA?2?$AAs?$AAe?$AAl?$AAf?$AA_?$AA6?$AA4?$AA_?$AAa?$AAm@ 0000000180066ac0     LIBCMTD:_cfout_.obj
 0002:0000eb50       ??_C@_1BK@ONMFGLDB@?$AA_?$AAw?$AAo?$AAu?$AAt?$AAp?$AAu?$AAt?$AA_?$AAs?$AA_?$AAl?$AA?$AA@ 0000000180066b50     LIBCMTD:woutputs.obj
 0002:0000eba0       ??_C@_1GG@HEPEIDKL@?$AAf?$AA?3?$AA?2?$AAd?$AAd?$AA?2?$AAv?$AAc?$AAt?$AAo?$AAo?$AAl?$AAs?$AA?2?$AAc?$AAr?$AAt?$AA_?$AAb?$AAl?$AAd?$AA?2?$AAs?$AAe?$AAl?$AAf?$AA_?$AA6?$AA4?$AA_?$AAa?$AAm@ 0000000180066ba0     LIBCMTD:open.obj
 0002:0000ec08       ??_C@_1BO@DPAOGEII@?$AA?$CI?$AAp?$AAa?$AAt?$AAh?$AA?5?$AA?$CB?$AA?$DN?$AA?5?$AAN?$AAU?$AAL?$AAL?$AA?$CJ?$AA?$AA@ 0000000180066c08     LIBCMTD:open.obj
 0002:0000ec30       ??_C@_1FG@NFINBJCM@?$AA?$CI?$AA?$CI?$AAp?$AAm?$AAo?$AAd?$AAe?$AA?5?$AA?$CG?$AA?5?$AA?$CI?$AA?$HO?$AA?$CI?$AA_?$AAS?$AA_?$AAI?$AAR?$AAE?$AAA?$AAD?$AA?5?$AA?$HM?$AA?5?$AA_?$AAS?$AA_?$AAI?$AAW?$AAR?$AAI?$AAT@ 0000000180066c30     LIBCMTD:open.obj
 0002:0000ec88       ??_C@_1BM@IOBAMMHO@?$AA_?$AAs?$AAo?$AAp?$AAe?$AAn?$AA_?$AAh?$AAe?$AAl?$AAp?$AAe?$AAr?$AA?$AA@ 0000000180066c88     LIBCMTD:open.obj
 0002:0000eca8       ??_C@_1BM@PGEEHLHE@?$AA?$CI?$AAp?$AAf?$AAh?$AA?5?$AA?$CB?$AA?$DN?$AA?5?$AAN?$AAU?$AAL?$AAL?$AA?$CJ?$AA?$AA@ 0000000180066ca8     LIBCMTD:open.obj
 0002:0000ecd0       ??_C@_1IA@IENOJNJF@?$AA0?$AA?5?$AA?$CG?$AA?$CG?$AA?5?$AA?$CC?$AAO?$AAn?$AAl?$AAy?$AA?5?$AAU?$AAT?$AAF?$AA?9?$AA1?$AA6?$AA?5?$AAl?$AAi?$AAt?$AAt?$AAl?$AAe?$AA?5?$AAe?$AAn?$AAd?$AAi?$AAa?$AAn?$AA?5@ 0000000180066cd0     LIBCMTD:open.obj
 0002:0000ed50       ??_C@_1CM@IDLMKMPG@?$AA0?$AA?5?$AA?$CG?$AA?$CG?$AA?5?$AA?$CC?$AAI?$AAn?$AAt?$AAe?$AAr?$AAn?$AAa?$AAl?$AA?5?$AAE?$AAr?$AAr?$AAo?$AAr?$AA?$CC?$AA?$AA@ 0000000180066d50     LIBCMTD:open.obj
 0002:0000ed80       ??_C@_1HM@GJANBLHJ@?$AA?$CI?$AAo?$AAf?$AAl?$AAa?$AAg?$AA?5?$AA?$CG?$AA?5?$AA?$CI?$AA_?$AAO?$AA_?$AAT?$AAE?$AAX?$AAT?$AA?5?$AA?$HM?$AA?5?$AA_?$AAO?$AA_?$AAW?$AAT?$AAE?$AAX?$AAT?$AA?5?$AA?$HM?$AA?5?$AA_@ 0000000180066d80     LIBCMTD:open.obj
 0002:0000ee00       ??_C@_1DO@PJLMOANO@?$AA?$CI?$AA?5?$AA?$CC?$AAI?$AAn?$AAv?$AAa?$AAl?$AAi?$AAd?$AA?5?$AAs?$AAh?$AAa?$AAr?$AAi?$AAn?$AAg?$AA?5?$AAf?$AAl?$AAa?$AAg?$AA?$CC?$AA?5?$AA?0?$AA?5?$AA0?$AA?5?$AA?$CJ?$AA?$AA@ 0000000180066e00     LIBCMTD:open.obj
 0002:0000ee40       ??_C@_1DI@DGKIFCCE@?$AA?$CI?$AA?5?$AA?$CC?$AAI?$AAn?$AAv?$AAa?$AAl?$AAi?$AAd?$AA?5?$AAo?$AAp?$AAe?$AAn?$AA?5?$AAf?$AAl?$AAa?$AAg?$AA?$CC?$AA?5?$AA?0?$AA?5?$AA0?$AA?5?$AA?$CJ?$AA?$AA@ 0000000180066e40     LIBCMTD:open.obj
 0002:0000ee78       ??_C@_1CG@ICBEBDJJ@?$AA_?$AAg?$AAe?$AAt?$AA_?$AAf?$AAm?$AAo?$AAd?$AAe?$AA?$CI?$AA?$CG?$AAf?$AAm?$AAo?$AAd?$AAe?$AA?$CJ?$AA?$AA@ 0000000180066e78     LIBCMTD:open.obj
 0002:0000eea0       ??_C@_1BO@JOPFMPGH@?$AA_?$AAt?$AAs?$AAo?$AAp?$AAe?$AAn?$AA_?$AAn?$AAo?$AAl?$AAo?$AAc?$AAk?$AA?$AA@ 0000000180066ea0     LIBCMTD:open.obj
 0002:0000eec0       ??_C@_1BG@GBJNMPFA@?$AAs?$AA2?$AA?5?$AA?$CB?$AA?$DN?$AA?5?$AAN?$AAU?$AAL?$AAL?$AA?$AA@ 0000000180066ec0     LIBCMTD:mbsnbicm.obj
 0002:0000eed8       ??_C@_1BK@GEJONGBG@?$AA_?$AAm?$AAb?$AAs?$AAn?$AAb?$AAi?$AAc?$AAm?$AAp?$AA_?$AAl?$AA?$AA@ 0000000180066ed8     LIBCMTD:mbsnbicm.obj
 0002:0000ef00       ??_C@_1GO@MHPFKAO@?$AAf?$AA?3?$AA?2?$AAd?$AAd?$AA?2?$AAv?$AAc?$AAt?$AAo?$AAo?$AAl?$AAs?$AA?2?$AAc?$AAr?$AAt?$AA_?$AAb?$AAl?$AAd?$AA?2?$AAs?$AAe?$AAl?$AAf?$AA_?$AA6?$AA4?$AA_?$AAa?$AAm@ 0000000180066f00     LIBCMTD:mbsnbicm.obj
 0002:0000ef70       ??_C@_1BG@MODEICJK@?$AAs?$AA1?$AA?5?$AA?$CB?$AA?$DN?$AA?5?$AAN?$AAU?$AAL?$AAL?$AA?$AA@ 0000000180066f70     LIBCMTD:mbsnbicm.obj
 0002:0000ef88       ??_C@_1BI@LPHOHGHI@?$AA_?$AAm?$AAb?$AAs?$AAn?$AAb?$AAc?$AAm?$AAp?$AA_?$AAl?$AA?$AA@ 0000000180066f88     LIBCMTD:mbsnbcmp.obj
 0002:0000efa0       ??_C@_1GO@BPDPKGCG@?$AAf?$AA?3?$AA?2?$AAd?$AAd?$AA?2?$AAv?$AAc?$AAt?$AAo?$AAo?$AAl?$AAs?$AA?2?$AAc?$AAr?$AAt?$AA_?$AAb?$AAl?$AAd?$AA?2?$AAs?$AAe?$AAl?$AAf?$AA_?$AA6?$AA4?$AA_?$AAa?$AAm@ 0000000180066fa0     LIBCMTD:mbsnbcmp.obj
 0002:0000f010       ??_C@_1BG@GLLONOEH@?$AA_?$AAs?$AAt?$AAr?$AAi?$AAc?$AAm?$AAp?$AA_?$AAl?$AA?$AA@ 0000000180067010     LIBCMTD:stricmp.obj
 0002:0000f030       ??_C@_1GM@JBEKGMGG@?$AAf?$AA?3?$AA?2?$AAd?$AAd?$AA?2?$AAv?$AAc?$AAt?$AAo?$AAo?$AAl?$AAs?$AA?2?$AAc?$AAr?$AAt?$AA_?$AAb?$AAl?$AAd?$AA?2?$AAs?$AAe?$AAl?$AAf?$AA_?$AA6?$AA4?$AA_?$AAa?$AAm@ 0000000180067030     LIBCMTD:stricmp.obj
 0002:0000f0a0       ??_C@_1BC@JLGKKIIG@?$AA_?$AAs?$AAt?$AAr?$AAi?$AAc?$AAm?$AAp?$AA?$AA@ 00000001800670a0     LIBCMTD:stricmp.obj
 0002:0000f0b8       ??_C@_1CC@JLPHKJPH@?$AAc?$AAo?$AAu?$AAn?$AAt?$AA?5?$AA?$DM?$AA?$DN?$AA?5?$AAI?$AAN?$AAT?$AA_?$AAM?$AAA?$AAX?$AA?$AA@ 00000001800670b8     LIBCMTD:strnicmp.obj
 0002:0000f0e0       ??_C@_1BI@BJLEPLEF@?$AA_?$AAs?$AAt?$AAr?$AAn?$AAi?$AAc?$AAm?$AAp?$AA_?$AAl?$AA?$AA@ 00000001800670e0     LIBCMTD:strnicmp.obj
 0002:0000f100       ??_C@_1GO@LJPFCLBL@?$AAf?$AA?3?$AA?2?$AAd?$AAd?$AA?2?$AAv?$AAc?$AAt?$AAo?$AAo?$AAl?$AAs?$AA?2?$AAc?$AAr?$AAt?$AA_?$AAb?$AAl?$AAd?$AA?2?$AAs?$AAe?$AAl?$AAf?$AA_?$AA6?$AA4?$AA_?$AAa?$AAm@ 0000000180067100     LIBCMTD:strnicmp.obj
 0002:0000f170       ??_C@_1BE@BHJDFFNA@?$AA_?$AAs?$AAt?$AAr?$AAn?$AAi?$AAc?$AAm?$AAp?$AA?$AA@ 0000000180067170     LIBCMTD:strnicmp.obj
 0002:0000f188       ??_C@_1BO@IHLJHOPI@?$AA_?$AA_?$AAs?$AAt?$AAr?$AAg?$AAt?$AAo?$AAl?$AAd?$AA1?$AA2?$AA_?$AAl?$AA?$AA@ 0000000180067188     LIBCMTD:_strgtold_.obj
 0002:0000f1b0       ??_C@_1JA@KMLJJOBI@?$AAf?$AA?3?$AA?2?$AAd?$AAd?$AA?2?$AAv?$AAc?$AAt?$AAo?$AAo?$AAl?$AAs?$AA?2?$AAc?$AAr?$AAt?$AA_?$AAb?$AAl?$AAd?$AA?2?$AAs?$AAe?$AAl?$AAf?$AA_?$AA6?$AA4?$AA_?$AAa?$AAm@ 00000001800671b0     LIBCMTD:_strgtold_.obj
 0002:0000f240       ??_C@_1CA@MBDBOHIB@?$AA_?$AAL?$AAo?$AAc?$AAa?$AAl?$AAe?$AA?5?$AA?$CB?$AA?$DN?$AA?5?$AAN?$AAU?$AAL?$AAL?$AA?$AA@ 0000000180067240     LIBCMTD:_strgtold_.obj
 0002:0000f290       ??_C@_1FE@CEHLKAHD@?$AAi?$AAb?$AAa?$AAs?$AAe?$AA?5?$AA?$DN?$AA?$DN?$AA?5?$AA0?$AA?5?$AA?$HM?$AA?$HM?$AA?5?$AA?$CI?$AA2?$AA?5?$AA?$DM?$AA?$DN?$AA?5?$AAi?$AAb?$AAa?$AAs?$AAe?$AA?5?$AA?$CG?$AA?$CG?$AA?5?$AAi?$AAb?$AAa@ 0000000180067290     LIBCMTD:strtol.obj
 0002:0000f2e8       ??_C@_1BA@LOLAMAJG@?$AAs?$AAt?$AAr?$AAt?$AAo?$AAx?$AAl?$AA?$AA@ 00000001800672e8     LIBCMTD:strtol.obj
 0002:0000f300       ??_C@_1GK@OBPHBCHM@?$AAf?$AA?3?$AA?2?$AAd?$AAd?$AA?2?$AAv?$AAc?$AAt?$AAo?$AAo?$AAl?$AAs?$AA?2?$AAc?$AAr?$AAt?$AA_?$AAb?$AAl?$AAd?$AA?2?$AAs?$AAe?$AAl?$AAf?$AA_?$AA6?$AA4?$AA_?$AAa?$AAm@ 0000000180067300     LIBCMTD:strtol.obj
 0002:0000f370       ??_C@_1BA@BALFACEM@?$AAC?$AAO?$AAN?$AAO?$AAU?$AAT?$AA$?$AA?$AA@ 0000000180067370     LIBCMTD:initcon.obj
 0002:0000f380       ??_C@_1EG@MCFPJJEM@?$AAs?$AAt?$AAr?$AAc?$AAp?$AAy?$AA_?$AAs?$AA?$CI?$AAf?$AAo?$AAs?$AA?9?$AA?$DO?$AAm?$AAa?$AAn?$AA?0?$AA?5?$AA2?$AA1?$AA?$CL?$AA1?$AA?0?$AA?5?$AA?$CC?$AA1?$AA?$CD?$AAQ?$AAN?$AAA?$AAN@ 0000000180067380     LIBCMTD:_x10fout_.obj
 0002:0000f3c8       ??_C@_06IMKFLFPG@1?$CDQNAN?$AA@ 00000001800673c8     LIBCMTD:_x10fout_.obj
 0002:0000f3d0       ??_C@_1EE@ICBBBPAI@?$AAs?$AAt?$AAr?$AAc?$AAp?$AAy?$AA_?$AAs?$AA?$CI?$AAf?$AAo?$AAs?$AA?9?$AA?$DO?$AAm?$AAa?$AAn?$AA?0?$AA?5?$AA2?$AA1?$AA?$CL?$AA1?$AA?0?$AA?5?$AA?$CC?$AA1?$AA?$CD?$AAI?$AAN?$AAF?$AA?$CC@ 00000001800673d0     LIBCMTD:_x10fout_.obj
 0002:0000f414       ??_C@_05DNEBIAHO@1?$CDINF?$AA@ 0000000180067414     LIBCMTD:_x10fout_.obj
 0002:0000f420       ??_C@_1EE@MADEBIHF@?$AAs?$AAt?$AAr?$AAc?$AAp?$AAy?$AA_?$AAs?$AA?$CI?$AAf?$AAo?$AAs?$AA?9?$AA?$DO?$AAm?$AAa?$AAn?$AA?0?$AA?5?$AA2?$AA1?$AA?$CL?$AA1?$AA?0?$AA?5?$AA?$CC?$AA1?$AA?$CD?$AAI?$AAN?$AAD?$AA?$CC@ 0000000180067420     LIBCMTD:_x10fout_.obj
 0002:0000f464       ??_C@_05PHHOCPM@1?$CDIND?$AA@ 0000000180067464     LIBCMTD:_x10fout_.obj
 0002:0000f470       ??_C@_1EG@CDDBFNOB@?$AAs?$AAt?$AAr?$AAc?$AAp?$AAy?$AA_?$AAs?$AA?$CI?$AAf?$AAo?$AAs?$AA?9?$AA?$DO?$AAm?$AAa?$AAn?$AA?0?$AA?5?$AA2?$AA1?$AA?$CL?$AA1?$AA?0?$AA?5?$AA?$CC?$AA1?$AA?$CD?$AAS?$AAN?$AAA?$AAN@ 0000000180067470     LIBCMTD:_x10fout_.obj
 0002:0000f4b8       ??_C@_1BI@ELMAAFLN@?$AA$?$AAI?$AA1?$AA0?$AA_?$AAO?$AAU?$AAT?$AAP?$AAU?$AAT?$AA?$AA@ 00000001800674b8     LIBCMTD:_x10fout_.obj
 0002:0000f4d0       ??_C@_1IA@PDJAFEKJ@?$AAf?$AA?3?$AA?2?$AAd?$AAd?$AA?2?$AAv?$AAc?$AAt?$AAo?$AAo?$AAl?$AAs?$AA?2?$AAc?$AAr?$AAt?$AA_?$AAb?$AAl?$AAd?$AA?2?$AAs?$AAe?$AAl?$AAf?$AA_?$AA6?$AA4?$AA_?$AAa?$AAm@ 00000001800674d0     LIBCMTD:_x10fout_.obj
 0002:0000f550       ??_C@_06PGGFOGJG@1?$CDSNAN?$AA@ 0000000180067550     LIBCMTD:_x10fout_.obj
 0002:0000f560       ??_C@_1GM@NHMCDJGE@?$AAf?$AA?3?$AA?2?$AAd?$AAd?$AA?2?$AAv?$AAc?$AAt?$AAo?$AAo?$AAl?$AAs?$AA?2?$AAc?$AAr?$AAt?$AA_?$AAb?$AAl?$AAd?$AA?2?$AAs?$AAe?$AAl?$AAf?$AA_?$AA6?$AA4?$AA_?$AAa?$AAm@ 0000000180067560     LIBCMTD:setmode.obj
 0002:0000f5d0       ??_C@_1BG@CKGMPOFH@?$AA_?$AAg?$AAe?$AAt?$AA_?$AAf?$AAm?$AAo?$AAd?$AAe?$AA?$AA@ 00000001800675d0     LIBCMTD:setmode.obj
 0002:0000f5e8       ??_C@_1CA@GPIGPPFN@?$AA?$CI?$AAp?$AAM?$AAo?$AAd?$AAe?$AA?5?$AA?$CB?$AA?$DN?$AA?5?$AAN?$AAU?$AAL?$AAL?$AA?$CJ?$AA?$AA@ 00000001800675e8     LIBCMTD:setmode.obj
 0002:0000f668       ??_R4_Generic_error_category@std@@6B@ 0000000180067668     libcpmtd:syserror.obj
 0002:0000f690       ??_R3_Generic_error_category@std@@8 0000000180067690     libcpmtd:syserror.obj
 0002:0000f6a8       ??_R2_Generic_error_category@std@@8 00000001800676a8     libcpmtd:syserror.obj
 0002:0000f6c0       ??_R1A@?0A@EA@_Generic_error_category@std@@8 00000001800676c0     libcpmtd:syserror.obj
 0002:0000f6e8       ??_R1A@?0A@EA@error_category@std@@8 00000001800676e8     libcpmtd:syserror.obj
 0002:0000f710       ??_R3error_category@std@@8 0000000180067710     libcpmtd:syserror.obj
 0002:0000f728       ??_R2error_category@std@@8 0000000180067728     libcpmtd:syserror.obj
 0002:0000f738       ??_R4error_category@std@@6B@ 0000000180067738     libcpmtd:syserror.obj
 0002:0000f760       ??_R4bad_alloc@std@@6B@    0000000180067760     libcpmtd:syserror.obj
 0002:0000f788       ??_R3bad_alloc@std@@8      0000000180067788     libcpmtd:syserror.obj
 0002:0000f7a0       ??_R2bad_alloc@std@@8      00000001800677a0     libcpmtd:syserror.obj
 0002:0000f7b8       ??_R1A@?0A@EA@bad_alloc@std@@8 00000001800677b8     libcpmtd:syserror.obj
 0002:0000f7e0       ??_R1A@?0A@EA@exception@std@@8 00000001800677e0     libcpmtd:syserror.obj
 0002:0000f808       ??_R3exception@std@@8      0000000180067808     libcpmtd:syserror.obj
 0002:0000f820       ??_R2exception@std@@8      0000000180067820     libcpmtd:syserror.obj
 0002:0000f830       ??_R4_Iostream_error_category@std@@6B@ 0000000180067830     libcpmtd:syserror.obj
 0002:0000f858       ??_R3_Iostream_error_category@std@@8 0000000180067858     libcpmtd:syserror.obj
 0002:0000f870       ??_R2_Iostream_error_category@std@@8 0000000180067870     libcpmtd:syserror.obj
 0002:0000f888       ??_R1A@?0A@EA@_Iostream_error_category@std@@8 0000000180067888     libcpmtd:syserror.obj
 0002:0000f8b0       ??_R4_System_error_category@std@@6B@ 00000001800678b0     libcpmtd:syserror.obj
 0002:0000f8d8       ??_R3_System_error_category@std@@8 00000001800678d8     libcpmtd:syserror.obj
 0002:0000f8f0       ??_R2_System_error_category@std@@8 00000001800678f0     libcpmtd:syserror.obj
 0002:0000f910       ??_R1A@?0A@EA@_System_error_category@std@@8 0000000180067910     libcpmtd:syserror.obj
 0002:0000f938       ??_R1A@?0A@EA@logic_error@std@@8 0000000180067938     libcpmtd:xthrow.obj
 0002:0000f960       ??_R3logic_error@std@@8    0000000180067960     libcpmtd:xthrow.obj
 0002:0000f978       ??_R2logic_error@std@@8    0000000180067978     libcpmtd:xthrow.obj
 0002:0000f990       ??_R4logic_error@std@@6B@  0000000180067990     libcpmtd:xthrow.obj
 0002:0000f9b8       ??_R4length_error@std@@6B@ 00000001800679b8     libcpmtd:xthrow.obj
 0002:0000f9e0       ??_R3length_error@std@@8   00000001800679e0     libcpmtd:xthrow.obj
 0002:0000f9f8       ??_R2length_error@std@@8   00000001800679f8     libcpmtd:xthrow.obj
 0002:0000fa18       ??_R1A@?0A@EA@length_error@std@@8 0000000180067a18     libcpmtd:xthrow.obj
 0002:0000fa40       ??_R4out_of_range@std@@6B@ 0000000180067a40     libcpmtd:xthrow.obj
 0002:0000fa68       ??_R3out_of_range@std@@8   0000000180067a68     libcpmtd:xthrow.obj
 0002:0000fa80       ??_R2out_of_range@std@@8   0000000180067a80     libcpmtd:xthrow.obj
 0002:0000faa0       ??_R1A@?0A@EA@out_of_range@std@@8 0000000180067aa0     libcpmtd:xthrow.obj
 0002:0000fac8       ??_R1A@?0A@EA@runtime_error@std@@8 0000000180067ac8     libcpmtd:xthrow.obj
 0002:0000faf0       ??_R3runtime_error@std@@8  0000000180067af0     libcpmtd:xthrow.obj
 0002:0000fb08       ??_R2runtime_error@std@@8  0000000180067b08     libcpmtd:xthrow.obj
 0002:0000fb20       ??_R4runtime_error@std@@6B@ 0000000180067b20     libcpmtd:xthrow.obj
 0002:0000fb48       ??_R4_Locimp@locale@std@@6B@ 0000000180067b48     libcpmtd:locale0.obj
 0002:0000fb70       ??_R3_Locimp@locale@std@@8 0000000180067b70     libcpmtd:locale0.obj
 0002:0000fb88       ??_R2_Locimp@locale@std@@8 0000000180067b88     libcpmtd:locale0.obj
 0002:0000fba0       ??_R1A@?0A@EA@_Locimp@locale@std@@8 0000000180067ba0     libcpmtd:locale0.obj
 0002:0000fbc8       ??_R1A@?0A@EA@facet@locale@std@@8 0000000180067bc8     libcpmtd:locale0.obj
 0002:0000fbf0       ??_R3facet@locale@std@@8   0000000180067bf0     libcpmtd:locale0.obj
 0002:0000fc08       ??_R2facet@locale@std@@8   0000000180067c08     libcpmtd:locale0.obj
 0002:0000fc18       ??_R4facet@locale@std@@6B@ 0000000180067c18     libcpmtd:locale0.obj
 0002:0000fc40       ??_R4type_info@@6B@        0000000180067c40     LIBCMTD:typinfo.obj
 0002:0000fc68       ??_R3type_info@@8          0000000180067c68     LIBCMTD:typinfo.obj
 0002:0000fc80       ??_R2type_info@@8          0000000180067c80     LIBCMTD:typinfo.obj
 0002:0000fc90       ??_R1A@?0A@EA@type_info@@8 0000000180067c90     LIBCMTD:typinfo.obj
 0002:0000fcb8       ??_R4exception@std@@6B@    0000000180067cb8     LIBCMTD:stdexcpt.obj
 0002:0000fce0       ??_R4bad_cast@std@@6B@     0000000180067ce0     LIBCMTD:stdexcpt.obj
 0002:0000fd08       ??_R3bad_cast@std@@8       0000000180067d08     LIBCMTD:stdexcpt.obj
 0002:0000fd20       ??_R2bad_cast@std@@8       0000000180067d20     LIBCMTD:stdexcpt.obj
 0002:0000fd38       ??_R1A@?0A@EA@bad_cast@std@@8 0000000180067d38     LIBCMTD:stdexcpt.obj
 0002:0000fd60       ??_R4bad_exception@std@@6B@ 0000000180067d60     LIBCMTD:frame.obj
 0002:0000fd88       ??_R3bad_exception@std@@8  0000000180067d88     LIBCMTD:frame.obj
 0002:0000fda0       ??_R2bad_exception@std@@8  0000000180067da0     LIBCMTD:frame.obj
 0002:0000fdb8       ??_R1A@?0A@EA@bad_exception@std@@8 0000000180067db8     LIBCMTD:frame.obj
 0002:0000fde0       __rtc_iaa                  0000000180067de0     LIBCMTD:_initsect_.obj
 0002:0000fde8       __rtc_izz                  0000000180067de8     LIBCMTD:_initsect_.obj
 0002:0000fdf0       __rtc_taa                  0000000180067df0     LIBCMTD:_initsect_.obj
 0002:0000fdf8       __rtc_tzz                  0000000180067df8     LIBCMTD:_initsect_.obj
 0002:00012e20       _TI4?AVfailure@ios_base@std@@ 000000018006ae20     test.obj
 0002:00012e40       _CTA4?AVfailure@ios_base@std@@ 000000018006ae40     test.obj
 0002:00012e68       _CT??_R0?AVfailure@ios_base@std@@@8??0failure@ios_base@std@@QEAA@AEBV012@@Z40 000000018006ae68     test.obj
 0002:00012e90       _CT??_R0?AVsystem_error@std@@@8??0system_error@std@@QEAA@AEBV01@@Z40 000000018006ae90     test.obj
 0002:00012eb8       _CT??_R0?AVruntime_error@std@@@8??0runtime_error@std@@QEAA@AEBV01@@Z24 000000018006aeb8     test.obj
 0002:00012ee0       _CT??_R0?AVexception@std@@@8??0exception@std@@QEAA@AEBV01@@Z24 000000018006aee0     test.obj
 0002:00012f08       _TI2?AVbad_cast@std@@      000000018006af08     test.obj
 0002:00012f28       _CTA2?AVbad_cast@std@@     000000018006af28     test.obj
 0002:00012f40       _CT??_R0?AVbad_cast@std@@@8??0bad_cast@std@@QEAA@AEBV01@@Z24 000000018006af40     test.obj
 0002:00012f68       _TI2?AVruntime_error@std@@ 000000018006af68     test.obj
 0002:00012f88       _CTA2?AVruntime_error@std@@ 000000018006af88     test.obj
 0002:00012fa0       _TI2?AVbad_alloc@std@@     000000018006afa0     test.obj
 0002:00012fc0       _CTA2?AVbad_alloc@std@@    000000018006afc0     test.obj
 0002:00012fd8       _CT??_R0?AVbad_alloc@std@@@8??0bad_alloc@std@@QEAA@AEBV01@@Z24 000000018006afd8     test.obj
 0002:00013000       _CT??_R0?AVlogic_error@std@@@8??0logic_error@std@@QEAA@AEBV01@@Z24 000000018006b000     libcpmtd:xthrow.obj
 0002:00013028       _TI3?AVlength_error@std@@  000000018006b028     libcpmtd:xthrow.obj
 0002:00013048       _CTA3?AVlength_error@std@@ 000000018006b048     libcpmtd:xthrow.obj
 0002:00013068       _CT??_R0?AVlength_error@std@@@8??0length_error@std@@QEAA@AEBV01@@Z24 000000018006b068     libcpmtd:xthrow.obj
 0002:00013090       _TI3?AVout_of_range@std@@  000000018006b090     libcpmtd:xthrow.obj
 0002:000130b0       _CTA3?AVout_of_range@std@@ 000000018006b0b0     libcpmtd:xthrow.obj
 0002:000130d0       _CT??_R0?AVout_of_range@std@@@8??0out_of_range@std@@QEAA@AEBV01@@Z24 000000018006b0d0     libcpmtd:xthrow.obj
 0002:000130f8       _TI2?AVbad_exception@std@@ 000000018006b0f8     LIBCMTD:frame.obj
 0002:00013118       _CTA2?AVbad_exception@std@@ 000000018006b118     LIBCMTD:frame.obj
 0002:00013130       _CT??_R0?AVbad_exception@std@@@8??0bad_exception@std@@QEAA@AEBV01@@Z24 000000018006b130     LIBCMTD:frame.obj
 0002:00013154       __IMPORT_DESCRIPTOR_SDL2   000000018006b154     SDL2:SDL2.dll
 0002:00013168       __IMPORT_DESCRIPTOR_SDL2_image 000000018006b168     SDL2_image:SDL2_image.dll
 0002:0001317c       __IMPORT_DESCRIPTOR_SDL2_ttf 000000018006b17c     SDL2_ttf:SDL2_ttf.dll
 0002:00013190       __IMPORT_DESCRIPTOR_SDL2_mixer 000000018006b190     SDL2_mixer:SDL2_mixer.dll
 0002:000131a4       __IMPORT_DESCRIPTOR_KERNEL32 000000018006b1a4     kernel32:KERNEL32.dll
 0002:000131b8       __NULL_IMPORT_DESCRIPTOR   000000018006b1b8     SDL2:SDL2.dll
 0003:00000000       ?window_width@@3HA         000000018006d000     test.obj
 0003:00000004       ?window_height@@3HA        000000018006d004     test.obj
 0003:00000008       ?fontscale@@3HA            000000018006d008     test.obj
 0003:0000000c       ?back@@3_NA                000000018006d00c     test.obj
 0003:00000074       ?index_card_first@@3HA     000000018006d074     test.obj
 0003:00000078       ?index_card_last@@3HA      000000018006d078     test.obj
 0003:0000007c       ?fname@@3HA                000000018006d07c     test.obj
 0003:00000080       ??_R0?AVfailure@ios_base@std@@@8 000000018006d080     test.obj
 0003:000000b0       ??_R0?AVsystem_error@std@@@8 000000018006d0b0     test.obj
 0003:000000d8       ??_R0?AVruntime_error@std@@@8 000000018006d0d8     test.obj
 0003:00000100       ??_R0?AVexception@std@@@8  000000018006d100     test.obj
 0003:00000128       ??_R0?AVbad_cast@std@@@8   000000018006d128     test.obj
 0003:00000150       ??_R0?AVbad_alloc@std@@@8  000000018006d150     test.obj
 0003:00000178       ?_Sync@ios_base@std@@0_NA  000000018006d178     libcpmtd:ios.obj
 0003:00000180       ??_R0?AV_Generic_error_category@std@@@8 000000018006d180     libcpmtd:syserror.obj
 0003:000001b8       ??_R0?AVerror_category@std@@@8 000000018006d1b8     libcpmtd:syserror.obj
 0003:000001e8       ??_R0?AV_Iostream_error_category@std@@@8 000000018006d1e8     libcpmtd:syserror.obj
 0003:00000220       ??_R0?AV_System_error_category@std@@@8 000000018006d220     libcpmtd:syserror.obj
 0003:00000258       ??_R0?AVlogic_error@std@@@8 000000018006d258     libcpmtd:xthrow.obj
 0003:00000280       ??_R0?AVlength_error@std@@@8 000000018006d280     libcpmtd:xthrow.obj
 0003:000002a8       ??_R0?AVout_of_range@std@@@8 000000018006d2a8     libcpmtd:xthrow.obj
 0003:000002d0       ??_R0?AV_Locimp@locale@std@@@8 000000018006d2d0     libcpmtd:locale0.obj
 0003:00000300       ??_R0?AVfacet@locale@std@@@8 000000018006d300     libcpmtd:locale0.obj
 0003:00000340       ?_PJP_CPP_Copyright@@3PADA 000000018006d340     libcpmtd:iosptrs.obj
 0003:000003a0       __security_cookie          000000018006d3a0     LIBCMTD:gs_cookie.obj
 0003:000003a8       __security_cookie_complement 000000018006d3a8     LIBCMTD:gs_cookie.obj
 0003:000003b0       _iob                       000000018006d3b0     LIBCMTD:_file.obj
 0003:00000770       ??_R0?AVtype_info@@@8      000000018006d770     LIBCMTD:typinfo.obj
 0003:00000798       _crtDbgFlag                000000018006d798     LIBCMTD:dbgheap.obj
 0003:000007a0       __crtDebugFillThreshold    000000018006d7a0     LIBCMTD:dbgheap.obj
 0003:000007a8       _crtBreakAlloc             000000018006d7a8     LIBCMTD:dbgheap.obj
 0003:000007b0       _fltused                   000000018006d7b0     LIBCMTD:_fpinit_.obj
 0003:000007b4       _ldused                    000000018006d7b4     LIBCMTD:_fpinit_.obj
 0003:000007c0       __lconv_static_decimal     000000018006d7c0     LIBCMTD:lconv.obj
 0003:000007c4       __lconv_static_W_decimal   000000018006d7c4     LIBCMTD:lconv.obj
 0003:000007c8       __lconv                    000000018006d7c8     LIBCMTD:lconv.obj
 0003:000007d0       __lconv_c                  000000018006d7d0     LIBCMTD:lconv.obj
 0003:000008e0       ??_R0?AVbad_exception@std@@@8 000000018006d8e0     LIBCMTD:frame.obj
 0003:00000910       _pctype                    000000018006d910     LIBCMTD:ctype.obj
 0003:00000918       _pwctype                   000000018006d918     LIBCMTD:ctype.obj
 0003:00000a90       __abort_behavior           000000018006da90     LIBCMTD:abort.obj
 0003:00000a98       __nullstring               000000018006da98     LIBCMTD:output.obj
 0003:00000aa0       __wnullstring              000000018006daa0     LIBCMTD:output.obj
 0003:00000ab0       _cfltcvt_tab               000000018006dab0     LIBCMTD:cmiscdat.obj
 0003:00000b00       __initialmbcinfo           000000018006db00     LIBCMTD:mbctype.obj
 0003:00000d20       _mbctype                   000000018006dd20     LIBCMTD:mbctype.obj
 0003:00000e30       _mbcasemap                 000000018006de30     LIBCMTD:mbctype.obj
 0003:00000f30       __ptmbcinfo                000000018006df30     LIBCMTD:mbctype.obj
 0003:00001030       __flsindex                 000000018006e030     LIBCMTD:tidtable.obj
 0003:00001280       __badioinfo                000000018006e280     LIBCMTD:ioinit.obj
 0003:000012e0       _pfnAllocHook              000000018006e2e0     LIBCMTD:dbghook.obj
 0003:000012e8       _crtAssertBusy             000000018006e2e8     LIBCMTD:dbgrptt.obj
 0003:000012f0       _CrtDbgMode                000000018006e2f0     LIBCMTD:dbgrptt.obj
 0003:00001300       _CrtDbgFile                000000018006e300     LIBCMTD:dbgrptt.obj
 0003:00001320       __globallocalestatus       000000018006e320     LIBCMTD:glstatus.obj
 0003:00001324       __clocalestr               000000018006e324     LIBCMTD:nlsdata2.obj
 0003:00001330       __lc_time_c                000000018006e330     LIBCMTD:nlsdata2.obj
 0003:000015f0       __initiallocinfo           000000018006e5f0     LIBCMTD:nlsdata2.obj
 0003:00001750       __ptlocinfo                000000018006e750     LIBCMTD:nlsdata2.obj
 0003:00001758       __initiallocalestructinfo  000000018006e758     LIBCMTD:nlsdata2.obj
 0003:00001768       _d_inf                     000000018006e768     LIBCMTD:_util_.obj
 0003:00001770       _d_ind                     000000018006e770     LIBCMTD:_util_.obj
 0003:00001778       _d_max                     000000018006e778     LIBCMTD:_util_.obj
 0003:00001780       _d_min                     000000018006e780     LIBCMTD:_util_.obj
 0003:00001788       _d_mzero                   000000018006e788     LIBCMTD:_util_.obj
 0003:00001970       _sys_errlist               000000018006e970     LIBCMTD:syserr.obj
 0003:00001ad0       _sys_nerr                  000000018006ead0     LIBCMTD:syserr.obj
 0003:00001ae0       __mb_cur_max               000000018006eae0     LIBCMTD:nlsdata1.obj
 0003:00001ae4       __decimal_point            000000018006eae4     LIBCMTD:nlsdata1.obj
 0003:00001ae8       __decimal_point_length     000000018006eae8     LIBCMTD:nlsdata1.obj
 0003:00001af0       _HUGE                      000000018006eaf0     LIBCMTD:_huge_.obj
 0003:00001b00       _lookuptrailbytes          000000018006eb00     LIBCMTD:read.obj
 0003:00001c00       _matherr_flag              000000018006ec00     LIBCMTD:_matherr_.obj
 0003:00001c40       _confh                     000000018006ec40     LIBCMTD:initcon.obj
 0003:00001c50       _pow10pos                  000000018006ec50     LIBCMTD:_constpow_.obj
 0003:00001db0       _pow10neg                  000000018006edb0     LIBCMTD:_constpow_.obj
 0003:00001f20       ?solidRect_font@@3USDL_Rect@@A 000000018006ef20     test.obj
 0003:00001f30       ?effect@@3TSDL_HapticEffect@@A 000000018006ef30     test.obj
 0003:00001f78       ?gca@@3W4SDL_GameControllerAxis@@A 000000018006ef78     test.obj
 0003:00001f7c       ?Minimized@@3_NA           000000018006ef7c     test.obj
 0003:00001f80       ?solidTexture_font@@3PEAUSDL_Texture@@EA 000000018006ef80     test.obj
 0003:00001f88       ?effect_id@@3HA            000000018006ef88     test.obj
 0003:00001f8c       ?current_index@@3HA        000000018006ef8c     test.obj
 0003:00001f90       ?e@@3TSDL_Event@@A         000000018006ef90     test.obj
 0003:00001fc8       ?menu@@3PEAUSDL_Surface@@EA 000000018006efc8     test.obj
 0003:00001fd0       ?maximu_index_cards@@3PAHA 000000018006efd0     test.obj
 0003:000023d0       ?text_font@@3PEAUSDL_Texture@@EA 000000018006f3d0     test.obj
 0003:000023d8       ?window@@3PEAUSDL_Window@@EA 000000018006f3d8     test.obj
 0003:000023e0       ?renderer@@3PEAUSDL_Renderer@@EA 000000018006f3e0     test.obj
 0003:000023e8       ?gFont@@3PEAU_TTF_Font@@EA 000000018006f3e8     test.obj
 0003:000023f0       ?Joystick@@3PEAU_SDL_Joystick@@EA 000000018006f3f0     test.obj
 0003:000023f8       ?Controller@@3PEAU_SDL_GameController@@EA 000000018006f3f8     test.obj
 0003:00002400       ?haptic@@3PEAU_SDL_Haptic@@EA 000000018006f400     test.obj
 0003:00002408       ?FF@@3_NA                  000000018006f408     test.obj
 0003:00002409       ?front@@3_NA               000000018006f409     test.obj
 0003:0000240b       ?p_down@@3_NA              000000018006f40b     test.obj
 0003:00002410       ?index_card_current@@3HA   000000018006f410     test.obj
 0003:00002418       ?total_cards@@3HA          000000018006f418     test.obj
 0003:00002424       ?num_of_newlines@@3HA      000000018006f424     test.obj
 0003:00002428       ?minimize_once@@3HA        000000018006f428     test.obj
 0003:0000242c       ?window_x_pos@@3HA         000000018006f42c     test.obj
 0003:00002430       ?ctrl_down@@3_NA           000000018006f430     test.obj
 0003:00002431       ?o_down@@3_NA              000000018006f431     test.obj
 0003:00002432       ?ctrl_o_cube@@3_NA         000000018006f432     test.obj
 0003:00002433       ?one_down@@3_NA            000000018006f433     test.obj
 0003:00002434       ?two_down@@3_NA            000000018006f434     test.obj
 0003:00002435       ?three_down@@3_NA          000000018006f435     test.obj
 0003:00002437       ?withinBounds@@3_NA        000000018006f437     test.obj
 0003:0000243f       ?flip@@3_NA                000000018006f43f     test.obj
 0003:00002440       ?file_save@@3V?$basic_ofstream@DU?$char_traits@D@std@@@std@@A 000000018006f440     test.obj
 0003:00002548       ?keystate@@3PEBEEB         000000018006f548     test.obj
 0003:00002550       ?img@@3VLTexture@@A        000000018006f550     test.obj
 0003:00002560       ?file_load@@3V?$basic_ifstream@DU?$char_traits@D@std@@@std@@A 000000018006f560     test.obj
 0003:00002670       ?file_num@@3V?$basic_string@DU?$char_traits@D@std@@V?$allocator@D@2@@std@@A 000000018006f670     test.obj
 0003:000026ac       ?_Stinit@?1??_Init@?$basic_filebuf@DU?$char_traits@D@std@@@std@@IEAAXPEAU_iobuf@@W4_Initfl@23@@Z@4HA 000000018006f6ac     test.obj
 0003:000026b0       ?_Psave@?$_Facetptr@V?$ctype@D@std@@@std@@2PEBVfacet@locale@2@EB 000000018006f6b0     test.obj
 0003:000026b8       ?_Psave@?$_Facetptr@V?$num_put@DV?$ostreambuf_iterator@DU?$char_traits@D@std@@@std@@@std@@@std@@2PEBVfacet@locale@2@EB 000000018006f6b8     test.obj
 0003:000026c0       ?_Psave@?$_Facetptr@V?$num_get@DV?$istreambuf_iterator@DU?$char_traits@D@std@@@std@@@std@@@std@@2PEBVfacet@locale@2@EB 000000018006f6c0     test.obj
 0003:000026c8       ?_Psave@?$_Facetptr@V?$codecvt@DDH@std@@@std@@2PEBVfacet@locale@2@EB 000000018006f6c8     test.obj
 0003:000026d0       ?_Psave@?$_Facetptr@V?$numpunct@D@std@@@std@@2PEBVfacet@locale@2@EB 000000018006f6d0     test.obj
 0003:000026d8       ?id@?$numpunct@D@std@@2V0locale@2@A 000000018006f6d8     test.obj
 0003:000026e0       ?id@?$codecvt@DDH@std@@2V0locale@2@A 000000018006f6e0     test.obj
 0003:000026e8       ?id@?$num_put@DV?$ostreambuf_iterator@DU?$char_traits@D@std@@@std@@@std@@2V0locale@2@A 000000018006f6e8     test.obj
 0003:000026f0       ?id@?$num_get@DV?$istreambuf_iterator@DU?$char_traits@D@std@@@std@@@std@@2V0locale@2@A 000000018006f6f0     test.obj
 0003:000027b0       ?_Index@ios_base@std@@0HA  000000018006f7b0     libcpmtd:ios.obj
 0003:00002888       ?_Clocptr@_Locimp@locale@std@@0PEAV123@EA 000000018006f888     libcpmtd:locale0.obj
 0003:00002890       ?_Id_cnt@id@locale@std@@0HA 000000018006f890     libcpmtd:locale0.obj
 0003:00002898       ?id@?$codecvt@GDH@std@@2V0locale@2@A 000000018006f898     libcpmtd:locale0.obj
 0003:000028a0       ?id@?$ctype@D@std@@2V0locale@2@A 000000018006f8a0     libcpmtd:locale0.obj
 0003:000028a8       ?id@?$codecvt@_WDH@std@@2V0locale@2@A 000000018006f8a8     libcpmtd:locale0.obj
 0003:000028b8       ?id@?$ctype@G@std@@2V0locale@2@A 000000018006f8b8     libcpmtd:locale0.obj
 0003:000028c0       ?id@?$ctype@_W@std@@2V0locale@2@A 000000018006f8c0     libcpmtd:locale0.obj
 0003:000028d0       ?_Ptr_cin@std@@3PEAV?$basic_istream@DU?$char_traits@D@std@@@1@EA 000000018006f8d0     libcpmtd:iosptrs.obj
 0003:000028d8       ?_Ptr_cout@std@@3PEAV?$basic_ostream@DU?$char_traits@D@std@@@1@EA 000000018006f8d8     libcpmtd:iosptrs.obj
 0003:000028e0       ?_Ptr_cerr@std@@3PEAV?$basic_ostream@DU?$char_traits@D@std@@@1@EA 000000018006f8e0     libcpmtd:iosptrs.obj
 0003:000028e8       ?_Ptr_clog@std@@3PEAV?$basic_ostream@DU?$char_traits@D@std@@@1@EA 000000018006f8e8     libcpmtd:iosptrs.obj
 0003:000028f0       ?_Ptr_wcin@std@@3PEAV?$basic_istream@_WU?$char_traits@_W@std@@@1@EA 000000018006f8f0     libcpmtd:iosptrs.obj
 0003:000028f8       ?_Ptr_wcout@std@@3PEAV?$basic_ostream@_WU?$char_traits@_W@std@@@1@EA 000000018006f8f8     libcpmtd:iosptrs.obj
 0003:00002900       ?_Ptr_wcerr@std@@3PEAV?$basic_ostream@_WU?$char_traits@_W@std@@@1@EA 000000018006f900     libcpmtd:iosptrs.obj
 0003:00002908       ?_Ptr_wclog@std@@3PEAV?$basic_ostream@_WU?$char_traits@_W@std@@@1@EA 000000018006f908     libcpmtd:iosptrs.obj
 0003:00002b68       _umaskval                  000000018006fb68     LIBCMTD:crt0dat.obj
 0003:00002b6c       __argc                     000000018006fb6c     LIBCMTD:crt0dat.obj
 0003:00002b70       __argv                     000000018006fb70     LIBCMTD:crt0dat.obj
 0003:00002b78       __wargv                    000000018006fb78     LIBCMTD:crt0dat.obj
 0003:00002b80       _environ                   000000018006fb80     LIBCMTD:crt0dat.obj
 0003:00002b88       __initenv                  000000018006fb88     LIBCMTD:crt0dat.obj
 0003:00002b90       _wenviron                  000000018006fb90     LIBCMTD:crt0dat.obj
 0003:00002b98       __winitenv                 000000018006fb98     LIBCMTD:crt0dat.obj
 0003:00002ba0       _pgmptr                    000000018006fba0     LIBCMTD:crt0dat.obj
 0003:00002ba8       _wpgmptr                   000000018006fba8     LIBCMTD:crt0dat.obj
 0003:00002bb0       _exitflag                  000000018006fbb0     LIBCMTD:crt0dat.obj
 0003:00002bb4       _C_Termination_Done        000000018006fbb4     LIBCMTD:crt0dat.obj
 0003:00002bb8       _C_Exit_Done               000000018006fbb8     LIBCMTD:crt0dat.obj
 0003:00002bc0       _cflush                    000000018006fbc0     LIBCMTD:_file.obj
 0003:00002bc8       __pInvalidArgHandler       000000018006fbc8     LIBCMTD:invarg.obj
 0003:00002bf8       ?_pfnDumpClient@@3P6AXPEAX_K@ZEA 000000018006fbf8     LIBCMTD:dbgheap.obj
 0003:00002c08       __crtDebugCheckCount       000000018006fc08     LIBCMTD:dbgheap.obj
 0003:00002c2c       __fastflag                 000000018006fc2c     LIBCMTD:_fpinit_.obj
 0003:00002c30       __lconv_static_null        000000018006fc30     LIBCMTD:lconv.obj
 0003:00002c34       __lconv_static_W_null      000000018006fc34     LIBCMTD:lconv.obj
 0003:00002c3c       __error_mode               000000018006fc3c     LIBCMTD:dllcrt0.obj
 0003:00002c40       _aenvptr                   000000018006fc40     LIBCMTD:dllcrt0.obj
 0003:00002c48       _wenvptr                   000000018006fc48     LIBCMTD:dllcrt0.obj
 0003:00002c50       __app_type                 000000018006fc50     LIBCMTD:dllcrt0.obj
 0003:00002c54       __locale_changed           000000018006fc54     LIBCMTD:setlocal.obj
 0003:00002c58       _stdbuf                    000000018006fc58     LIBCMTD:_sftbuf.obj
 0003:00003810       __mbulinfo                 0000000180070810     LIBCMTD:mbctype.obj
 0003:0000381c       __mbcodepage               000000018007081c     LIBCMTD:mbctype.obj
 0003:00003820       __ismbcodepage             0000000180070820     LIBCMTD:mbctype.obj
 0003:00003824       __mblcid                   0000000180070824     LIBCMTD:mbctype.obj
 0003:00003a88       ?__pInconsistency@@3P6AXXZEA 0000000180070a88     LIBCMTD:hooks.obj
 0003:00003ac0       __pPurecall                0000000180070ac0     LIBCMTD:inithelp.obj
 0003:00003ac8       ?_pnhHeap@@3P6AH_K@ZEA     0000000180070ac8     LIBCMTD:handler.obj
 0003:00003b08       _newmode                   0000000180070b08     LIBCMTD:_newmode.obj
 0003:00003b10       _crtheap                   0000000180070b10     LIBCMTD:heapinit.obj
 0003:00003c28       ?pArgList@UnDecorator@@0PEAVReplicator@@EA 0000000180070c28     LIBCMTD:undname.obj
 0003:00003c58       ?pZNameList@UnDecorator@@0PEAVReplicator@@EA 0000000180070c58     LIBCMTD:undname.obj
 0003:00003c60       ?pTemplateArgList@UnDecorator@@0PEAVReplicator@@EA 0000000180070c60     LIBCMTD:undname.obj
 0003:00003c68       ?gName@UnDecorator@@0PEBDEB 0000000180070c68     LIBCMTD:undname.obj
 0003:00003c70       ?name@UnDecorator@@0PEBDEB 0000000180070c70     LIBCMTD:undname.obj
 0003:00003c78       ?outputString@UnDecorator@@0PEADEA 0000000180070c78     LIBCMTD:undname.obj
 0003:00003c80       ?maxStringLength@UnDecorator@@0HA 0000000180070c80     LIBCMTD:undname.obj
 0003:00003c84       ?disableFlags@UnDecorator@@0KA 0000000180070c84     LIBCMTD:undname.obj
 0003:00003c88       ?m_pGetParameter@UnDecorator@@0P6APEADJ@ZEA 0000000180070c88     LIBCMTD:undname.obj
 0003:00003c90       ?fExplicitTemplateParams@UnDecorator@@0_NA 0000000180070c90     LIBCMTD:undname.obj
 0003:00003c91       ?fGetTemplateArgumentList@UnDecorator@@0_NA 0000000180070c91     LIBCMTD:undname.obj
 0003:00003cc0       _outputformat              0000000180070cc0     LIBCMTD:outputformat.obj
 0003:00003cc4       _commode                   0000000180070cc4     LIBCMTD:ncommode.obj
 0003:00003cc8       _fmode                     0000000180070cc8     LIBCMTD:txtmode.obj
 0003:00003cd0       _pfnReportHook             0000000180070cd0     <common>
 0003:00003cd8       _pReportHookListW          0000000180070cd8     <common>
 0003:00003ce0       _pReportHookList           0000000180070ce0     <common>
 0003:00003ce8       _debugger_hook_dummy       0000000180070ce8     <common>
 0003:00003cec       _nhandle                   0000000180070cec     <common>
 0003:00003d00       __pioinfo                  0000000180070d00     <common>
 0003:00003f00       _acmdln                    0000000180070f00     <common>
 0003:00003f08       __piob                     0000000180070f08     <common>
 0003:00003f20       _bufin                     0000000180070f20     <common>
 0003:00004f20       _nstream                   0000000180071f20     <common>
 0003:00004f24       __env_initialized          0000000180071f24     <common>
 0003:00004f28       __onexitend                0000000180071f28     <common>
 0003:00004f30       __onexitbegin              0000000180071f30     <common>
 0003:00004f38       __mbctype_initialized      0000000180071f38     <common>
 0003:00004f40       __dyn_tls_init_callback    0000000180071f40     <common>

 entry point at        0001:00022740

 Static symbols

 0001:00000530       ?fullscreen@@YAXXZ         0000000180001530 f   test.obj
 0001:000005d0       ?minimized@@YAXXZ          00000001800015d0 f   test.obj
 0001:00000640       ?createwindow@@YAXXZ       0000000180001640 f   test.obj
 0001:00000750       ?icon@@YAXXZ               0000000180001750 f   test.obj
 0001:000014b0       ?input@@YAXXZ              00000001800024b0 f   test.obj
 0001:00001ec0       ?current_index_show@@YAXH@Z 0000000180002ec0 f   test.obj
 0001:00002010       ?draw@@YAXXZ               0000000180003010 f   test.obj
 0001:000031c0       ?index_card_overlay_info@@YAXXZ 00000001800041c0 f   test.obj
 0001:00003700       ?int_to_string@@YA?AV?$basic_string@DU?$char_traits@D@std@@V?$allocator@D@2@@std@@H@Z 0000000180004700 f   test.obj
 0001:00017330       tidy_global                0000000180018330 f   libcpmtd:locale0.obj
 0001:00017930       ?_Fac_tidy@@YAXXZ          0000000180018930 f   libcpmtd:locale0.obj
 0001:00018c40       _InitCPLocHash             0000000180019c40 f   libcpmtd:xmbtowc.obj
 0001:00018c80       _ReleaseCPLocHash          0000000180019c80 f   libcpmtd:xmbtowc.obj
 0001:00019370       doexit                     000000018001a370 f   LIBCMTD:crt0dat.obj
 0001:00019680       _initterm                  000000018001a680 f   LIBCMTD:crt0dat.obj
 0001:00019830       ?ArrayUnwindFilter@@YAHPEAU_EXCEPTION_POINTERS@@@Z 000000018001a830 f   LIBCMTD:ehvecdtr.obj
 0001:00019b60       ?_CatchTryBlock@@YAPEBU_s_TryBlockMapEntry@@PEBU_s_FuncInfo@@H@Z 000000018001ab60 f   LIBCMTD:trnsctrl.obj
 0001:0001c620       flsall                     000000018001d620 f   LIBCMTD:fflush.obj
 0001:0001dd90       _nh_malloc_dbg_impl        000000018001ed90 f   LIBCMTD:dbgheap.obj
 0001:0001de30       _heap_alloc_dbg_impl       000000018001ee30 f   LIBCMTD:dbgheap.obj
 0001:0001e4a0       realloc_help               000000018001f4a0 f   LIBCMTD:dbgheap.obj
 0001:0001f650       CheckBytes                 0000000180020650 f   LIBCMTD:dbgheap.obj
 0001:00020270       ?_CrtMemDumpAllObjectsSince_stat@@YAXPEBU_CrtMemState@@PEAUlocaleinfo_struct@@@Z 0000000180021270 f   LIBCMTD:dbgheap.obj
 0001:00020610       _printMemBlockData         0000000180021610 f   LIBCMTD:dbgheap.obj
 0001:000213c0       _onexit_nolock             00000001800223c0 f   LIBCMTD:onexit.obj
 0001:00022500       swprintf                   0000000180023500 f   LIBCMTD:wassert.obj
 0001:00022780       __DllMainCRTStartup        0000000180023780 f   LIBCMTD:dllcrt0.obj
 0001:00023460       ?FindHandler@@YAXPEAUEHExceptionRecord@@PEA_KPEAU_CONTEXT@@PEAU_xDISPATCHER_CONTEXT@@PEBU_s_FuncInfo@@EH1@Z 0000000180024460 f   LIBCMTD:frame.obj
 0001:00023d10       ?FindHandlerForForeignException@@YAXPEAUEHExceptionRecord@@PEA_KPEAU_CONTEXT@@PEAU_xDISPATCHER_CONTEXT@@PEBU_s_FuncInfo@@HH1@Z 0000000180024d10 f   LIBCMTD:frame.obj
 0001:00024530       ?CatchIt@@YAXPEAUEHExceptionRecord@@PEA_KPEAU_CONTEXT@@PEAU_xDISPATCHER_CONTEXT@@PEBU_s_FuncInfo@@PEBU_s_HandlerType@@PEBU_s_CatchableType@@PEBU_s_TryBlockMapEntry@@H1EE@Z 0000000180025530 f   LIBCMTD:frame.obj
 0001:00024850       ?__RethrowException@@YAXPEAUEHExceptionRecord@@@Z 0000000180025850 f   LIBCMTD:frame.obj
 0001:00024890       ?ExFilterRethrow@@YAHPEAU_EXCEPTION_POINTERS@@PEAUEHExceptionRecord@@PEAH@Z 0000000180025890 f   LIBCMTD:frame.obj
 0001:00024f90       ?IsInExceptionSpec@@YAEPEAUEHExceptionRecord@@PEBU_s_ESTypeList@@@Z 0000000180025f90 f   LIBCMTD:frame.obj
 0001:000250a0       ?Is_bad_exception_allowed@@YAEPEBU_s_ESTypeList@@@Z 00000001800260a0 f   LIBCMTD:frame.obj
 0001:000252c0       _copytlocinfo_nolock       00000001800262c0 f   LIBCMTD:setlocal.obj
 0001:000255a0       sync_legacy_variables_lk   00000001800265a0 f   LIBCMTD:setlocal.obj
 0001:000255e0       _setlocale_nolock          00000001800265e0 f   LIBCMTD:setlocal.obj
 0001:00025ac0       _setlocale_set_cat         0000000180026ac0 f   LIBCMTD:setlocal.obj
 0001:000261a0       _setlocale_get_all         00000001800271a0 f   LIBCMTD:setlocal.obj
 0001:00026e00       ?__crtLCMapStringA_stat@@YAHPEAUlocaleinfo_struct@@KKPEBDHPEADHHH@Z 0000000180027e00 f   LIBCMTD:a_map.obj
 0001:000272c0       ?strncnt@@YAHPEBDH@Z       00000001800282c0 f   LIBCMTD:a_map.obj
 0001:00028900       xtoa_s                     0000000180029900 f   LIBCMTD:xtoas.obj
 0001:0002ba90       ?getSystemCP@@YAHH@Z       000000018002ca90 f   LIBCMTD:mbctype.obj
 0001:0002bff0       ?CPtoLCID@@YAHH@Z          000000018002cff0 f   LIBCMTD:mbctype.obj
 0001:0002c050       ?setSBCS@@YAXPEAUthreadmbcinfostruct@@@Z 000000018002d050 f   LIBCMTD:mbctype.obj
 0001:0002c150       ?setSBUpLow@@YAXPEAUthreadmbcinfostruct@@@Z 000000018002d150 f   LIBCMTD:mbctype.obj
 0001:0002d3a0       siglookup                  000000018002e3a0 f   LIBCMTD:winsig.obj
 0001:000340f0       _is_LFH_enabled            00000001800350f0 f   LIBCMTD:expand.obj
 0001:00036090       _cftoe2_l                  0000000180037090 f   LIBCMTD:cvt.obj
 0001:00037500       _cftof2_l                  0000000180038500 f   LIBCMTD:cvt.obj
 0001:00037e30       _shift                     0000000180038e30 f   LIBCMTD:cvt.obj
 0001:00038f90       _get_fname                 0000000180039f90 f   LIBCMTD:_fpexcept_.obj
 0001:00039240       xtow_s                     000000018003a240 f   LIBCMTD:xtows.obj
 0001:0003bb90       parse_cmdline              000000018003cb90 f   LIBCMTD:stdargv.obj
 0001:0003c570       xcptlookup                 000000018003d570 f   LIBCMTD:winxfltr.obj
 0001:0003e3f0       _get_lc_time               000000018003f3f0 f   LIBCMTD:inittime.obj
 0001:00040270       fix_grouping               0000000180041270 f   LIBCMTD:initnum.obj
 0001:00040270       fix_grouping               0000000180041270 f   LIBCMTD:initnum.obj
 0001:00041070       ?__crtGetStringTypeA_stat@@YAHPEAUlocaleinfo_struct@@KPEBDHPEAGHHH@Z 0000000180042070 f   LIBCMTD:a_str.obj
 0001:00041b20       TranslateName              0000000180042b20 f   LIBCMTD:getqloc.obj
 0001:00041c00       GetLcidFromLangCountry     0000000180042c00 f   LIBCMTD:getqloc.obj
 0001:00041d00       LangCountryEnumProc        0000000180042d00 f   LIBCMTD:getqloc.obj
 0001:00042220       GetLcidFromLanguage        0000000180043220 f   LIBCMTD:getqloc.obj
 0001:000422c0       LanguageEnumProc           00000001800432c0 f   LIBCMTD:getqloc.obj
 0001:000424d0       GetLcidFromCountry         00000001800434d0 f   LIBCMTD:getqloc.obj
 0001:00042540       CountryEnumProc            0000000180043540 f   LIBCMTD:getqloc.obj
 0001:000426a0       GetLcidFromDefault         00000001800436a0 f   LIBCMTD:getqloc.obj
 0001:000426f0       ProcessCodePage            00000001800436f0 f   LIBCMTD:getqloc.obj
 0001:000427c0       TestDefaultCountry         00000001800437c0 f   LIBCMTD:getqloc.obj
 0001:00042820       TestDefaultLanguage        0000000180043820 f   LIBCMTD:getqloc.obj
 0001:000428b0       LcidFromHexString          00000001800438b0 f   LIBCMTD:getqloc.obj
 0001:00042940       GetPrimaryLen              0000000180043940 f   LIBCMTD:getqloc.obj
 0001:00044a30       write_char                 0000000180045a30 f   LIBCMTD:outputs.obj
 0001:00044a30       write_char                 0000000180045a30 f   LIBCMTD:outputs.obj
 0001:00044b10       write_multi_char           0000000180045b10 f   LIBCMTD:outputs.obj
 0001:00044b10       write_multi_char           0000000180045b10 f   LIBCMTD:outputs.obj
 0001:00044b60       write_string               0000000180045b60 f   LIBCMTD:outputs.obj
 0001:00044b60       write_string               0000000180045b60 f   LIBCMTD:outputs.obj
 0001:00044ce0       ?__crtGetLocaleInfoA_stat@@YAHPEAUlocaleinfo_struct@@KKPEADH@Z 0000000180045ce0 f   LIBCMTD:a_loc.obj
 0001:000488c0       ?wcsncnt@@YA_KPEB_W_K@Z    00000001800498c0 f   LIBCMTD:wcstombs.obj
 0001:0004c710       write_char                 000000018004d710 f   LIBCMTD:woutputs.obj
 0001:0004c710       write_char                 000000018004d710 f   LIBCMTD:woutputs.obj
 0001:0004c790       write_multi_char           000000018004d790 f   LIBCMTD:woutputs.obj
 0001:0004c790       write_multi_char           000000018004d790 f   LIBCMTD:woutputs.obj
 0001:0004c7e0       write_string               000000018004d7e0 f   LIBCMTD:woutputs.obj
 0001:0004c7e0       write_string               000000018004d7e0 f   LIBCMTD:woutputs.obj
 0001:0004c900       ?x_ismbbtype_l@@YAHPEAUlocaleinfo_struct@@IHH@Z 000000018004d900 f   LIBCMTD:ismbbyte.obj
 0001:0004cce0       _tsopen_nolock             000000018004dce0 f   LIBCMTD:open.obj
 0001:00051930       ?strtoxl@@YAKPEAUlocaleinfo_struct@@PEBDPEAPEBDHH@Z 0000000180052930 f   LIBCMTD:strtol.obj
 0001:00053b10       xtoa                       0000000180054b10 f   LIBCMTD:xtoa.obj
 0001:00053c20       ?dtor$0@?0??draw@@YAXXZ@4HA 0000000180054c20 f   test.obj
 0001:00053c40       ?dtor$1@?0??draw@@YAXXZ@4HA 0000000180054c40 f   test.obj
 0001:00053c60       ?dtor$2@?0??draw@@YAXXZ@4HA 0000000180054c60 f   test.obj
 0001:00053c80       ?dtor$3@?0??draw@@YAXXZ@4HA 0000000180054c80 f   test.obj
 0001:00053ca0       ?dtor$4@?0??draw@@YAXXZ@4HA 0000000180054ca0 f   test.obj
 0001:00053cc0       ?dtor$5@?0??draw@@YAXXZ@4HA 0000000180054cc0 f   test.obj
 0001:00053cf0       ?dtor$6@?0??draw@@YAXXZ@4HA 0000000180054cf0 f   test.obj
 0001:00053d10       ?dtor$7@?0??draw@@YAXXZ@4HA 0000000180054d10 f   test.obj
 0001:00053d30       ?dtor$9@?0??draw@@YAXXZ@4HA 0000000180054d30 f   test.obj
 0001:00053d50       ?dtor$10@?0??draw@@YAXXZ@4HA 0000000180054d50 f   test.obj
 0001:00053d70       ?dtor$11@?0??draw@@YAXXZ@4HA 0000000180054d70 f   test.obj
 0001:00053d90       ?dtor$12@?0??draw@@YAXXZ@4HA 0000000180054d90 f   test.obj
 0001:00053db0       ?dtor$13@?0??draw@@YAXXZ@4HA 0000000180054db0 f   test.obj
 0001:00053de0       ?dtor$14@?0??draw@@YAXXZ@4HA 0000000180054de0 f   test.obj
 0001:00053e10       ?dtor$0@?0??index_card_overlay_info@@YAXXZ@4HA 0000000180054e10 f   test.obj
 0001:00053e30       ?dtor$1@?0??index_card_overlay_info@@YAXXZ@4HA 0000000180054e30 f   test.obj
 0001:00053e50       ?dtor$2@?0??index_card_overlay_info@@YAXXZ@4HA 0000000180054e50 f   test.obj
 0001:00053e70       ?dtor$3@?0??index_card_overlay_info@@YAXXZ@4HA 0000000180054e70 f   test.obj
 0001:00053e90       ?dtor$4@?0??index_card_overlay_info@@YAXXZ@4HA 0000000180054e90 f   test.obj
 0001:00053ec0       ?dtor$0@?0??int_to_string@@YA?AV?$basic_string@DU?$char_traits@D@std@@V?$allocator@D@2@@std@@H@Z@4HA 0000000180054ec0 f   test.obj
 0001:00053ee0       ?dtor$1@?0??int_to_string@@YA?AV?$basic_string@DU?$char_traits@D@std@@V?$allocator@D@2@@std@@H@Z@4HA 0000000180054ee0 f   test.obj
 0001:00053f10       ?dtor$0@?0???0?$basic_string@DU?$char_traits@D@std@@V?$allocator@D@2@@std@@QEAA@PEBD@Z@4HA 0000000180054f10 f   test.obj
 0001:00053f10       ?dtor$0@?0???0?$basic_string@DU?$char_traits@D@std@@V?$allocator@D@2@@std@@QEAA@_KD@Z@4HA 0000000180054f10 f   test.obj
 0001:00053f10       ?dtor$0@?0???0?$basic_string@DU?$char_traits@D@std@@V?$allocator@D@2@@std@@QEAA@XZ@4HA 0000000180054f10 f   test.obj
 0001:00053f10       ?dtor$0@?0???0?$basic_string@DU?$char_traits@D@std@@V?$allocator@D@2@@std@@QEAA@AEBV01@_K1AEBV?$allocator@D@1@@Z@4HA 0000000180054f10 f   test.obj
 0001:00053f10       ?dtor$0@?0???0?$basic_string@DU?$char_traits@D@std@@V?$allocator@D@2@@std@@QEAA@$$QEAV01@@Z@4HA 0000000180054f10 f   test.obj
 0001:00053f30       ?dtor$0@?0???1?$basic_string@DU?$char_traits@D@std@@V?$allocator@D@2@@std@@QEAA@XZ@4HA 0000000180054f30 f   test.obj
 0001:00053f50       ?dtor$0@?0???6?$basic_ostream@DU?$char_traits@D@std@@@std@@QEAAAEAV01@_N@Z@4HA 0000000180054f50 f   test.obj
 0001:00053f70       ?dtor$1@?0???6?$basic_ostream@DU?$char_traits@D@std@@@std@@QEAAAEAV01@_N@Z@4HA 0000000180054f70 f   test.obj
 0001:00053f90       ?catch$0@?0???6?$basic_ostream@DU?$char_traits@D@std@@@std@@QEAAAEAV01@_N@Z@4HA 0000000180054f90 f   test.obj
 0001:00053f9d       __catch$??6?$basic_ostream@DU?$char_traits@D@std@@@std@@QEAAAEAV01@_N@Z$0 0000000180054f9d f   test.obj
 0001:00053fe0       ?dtor$0@?0???6?$basic_ostream@DU?$char_traits@D@std@@@std@@QEAAAEAV01@H@Z@4HA 0000000180054fe0 f   test.obj
 0001:00054000       ?dtor$1@?0???6?$basic_ostream@DU?$char_traits@D@std@@@std@@QEAAAEAV01@H@Z@4HA 0000000180055000 f   test.obj
 0001:00054020       ?catch$0@?0???6?$basic_ostream@DU?$char_traits@D@std@@@std@@QEAAAEAV01@H@Z@4HA 0000000180055020 f   test.obj
 0001:0005402d       __catch$??6?$basic_ostream@DU?$char_traits@D@std@@@std@@QEAAAEAV01@H@Z$0 000000018005502d f   test.obj
 0001:00054070       ?dtor$0@?0??put@?$basic_ostream@DU?$char_traits@D@std@@@std@@QEAAAEAV12@D@Z@4HA 0000000180055070 f   test.obj
 0001:00054090       ?catch$0@?0??put@?$basic_ostream@DU?$char_traits@D@std@@@std@@QEAAAEAV12@D@Z@4HA 0000000180055090 f   test.obj
 0001:0005409d       __catch$?put@?$basic_ostream@DU?$char_traits@D@std@@@std@@QEAAAEAV12@D@Z$0 000000018005509d f   test.obj
 0001:000540e0       ?dtor$0@?0???5?$basic_istream@DU?$char_traits@D@std@@@std@@QEAAAEAV01@AEA_N@Z@4HA 00000001800550e0 f   test.obj
 0001:00054100       ?dtor$1@?0???5?$basic_istream@DU?$char_traits@D@std@@@std@@QEAAAEAV01@AEA_N@Z@4HA 0000000180055100 f   test.obj
 0001:00054120       ?catch$0@?0???5?$basic_istream@DU?$char_traits@D@std@@@std@@QEAAAEAV01@AEA_N@Z@4HA 0000000180055120 f   test.obj
 0001:0005412d       __catch$??5?$basic_istream@DU?$char_traits@D@std@@@std@@QEAAAEAV01@AEA_N@Z$0 000000018005512d f   test.obj
 0001:00054170       ?dtor$0@?0???5?$basic_istream@DU?$char_traits@D@std@@@std@@QEAAAEAV01@AEAH@Z@4HA 0000000180055170 f   test.obj
 0001:00054190       ?dtor$1@?0???5?$basic_istream@DU?$char_traits@D@std@@@std@@QEAAAEAV01@AEAH@Z@4HA 0000000180055190 f   test.obj
 0001:000541b0       ?catch$0@?0???5?$basic_istream@DU?$char_traits@D@std@@@std@@QEAAAEAV01@AEAH@Z@4HA 00000001800551b0 f   test.obj
 0001:000541bd       __catch$??5?$basic_istream@DU?$char_traits@D@std@@@std@@QEAAAEAV01@AEAH@Z$0 00000001800551bd f   test.obj
 0001:00054200       ?dtor$0@?0???1sentry@?$basic_ostream@DU?$char_traits@D@std@@@std@@QEAA@XZ@4HA 0000000180055200 f   test.obj
 0001:00054200       ?dtor$0@?0???0sentry@?$basic_istream@DU?$char_traits@D@std@@@std@@QEAA@AEAV12@_N@Z@4HA 0000000180055200 f   test.obj
 0001:00054200       ?dtor$0@?0???0sentry@?$basic_ostream@DU?$char_traits@D@std@@@std@@QEAA@AEAV12@@Z@4HA 0000000180055200 f   test.obj
 0001:00054220       ?dtor$0@?0???0?$basic_ifstream@DU?$char_traits@D@std@@@std@@QEAA@AEBV?$basic_string@DU?$char_traits@D@std@@V?$allocator@D@2@@1@HH@Z@4HA 0000000180055220 f   test.obj
 0001:00054250       ?dtor$1@?0???0?$basic_ifstream@DU?$char_traits@D@std@@@std@@QEAA@AEBV?$basic_string@DU?$char_traits@D@std@@V?$allocator@D@2@@1@HH@Z@4HA 0000000180055250 f   test.obj
 0001:00054270       ?dtor$2@?0???0?$basic_ifstream@DU?$char_traits@D@std@@@std@@QEAA@AEBV?$basic_string@DU?$char_traits@D@std@@V?$allocator@D@2@@1@HH@Z@4HA 0000000180055270 f   test.obj
 0001:00054290       ?dtor$0@?0???1?$basic_ifstream@DU?$char_traits@D@std@@@std@@UEAA@XZ@4HA 0000000180055290 f   test.obj
 0001:000542c0       ?dtor$0@?0???1?$basic_streambuf@DU?$char_traits@D@std@@@std@@UEAA@XZ@4HA 00000001800552c0 f   test.obj
 0001:000542e0       ?dtor$0@?0??overflow@?$basic_filebuf@DU?$char_traits@D@std@@@std@@MEAAHH@Z@4HA 00000001800552e0 f   test.obj
 0001:00054300       ?dtor$1@?0??overflow@?$basic_filebuf@DU?$char_traits@D@std@@@std@@MEAAHH@Z@4HA 0000000180055300 f   test.obj
 0001:00054320       ?dtor$2@?0??overflow@?$basic_filebuf@DU?$char_traits@D@std@@@std@@MEAAHH@Z@4HA 0000000180055320 f   test.obj
 0001:00054340       ?dtor$3@?0??overflow@?$basic_filebuf@DU?$char_traits@D@std@@@std@@MEAAHH@Z@4HA 0000000180055340 f   test.obj
 0001:00054360       ?dtor$4@?0??overflow@?$basic_filebuf@DU?$char_traits@D@std@@@std@@MEAAHH@Z@4HA 0000000180055360 f   test.obj
 0001:00054390       ?dtor$0@?0??uflow@?$basic_filebuf@DU?$char_traits@D@std@@@std@@MEAAHXZ@4HA 0000000180055390 f   test.obj
 0001:000543b0       ?dtor$1@?0??uflow@?$basic_filebuf@DU?$char_traits@D@std@@@std@@MEAAHXZ@4HA 00000001800553b0 f   test.obj
 0001:000543d0       ?dtor$2@?0??uflow@?$basic_filebuf@DU?$char_traits@D@std@@@std@@MEAAHXZ@4HA 00000001800553d0 f   test.obj
 0001:000543f0       ?dtor$3@?0??uflow@?$basic_filebuf@DU?$char_traits@D@std@@@std@@MEAAHXZ@4HA 00000001800553f0 f   test.obj
 0001:00054410       ?dtor$4@?0??uflow@?$basic_filebuf@DU?$char_traits@D@std@@@std@@MEAAHXZ@4HA 0000000180055410 f   test.obj
 0001:00054430       ?dtor$5@?0??uflow@?$basic_filebuf@DU?$char_traits@D@std@@@std@@MEAAHXZ@4HA 0000000180055430 f   test.obj
 0001:00054450       ?dtor$0@?0???0?$basic_stringstream@DU?$char_traits@D@std@@V?$allocator@D@2@@std@@QEAA@AEBV?$basic_string@DU?$char_traits@D@std@@V?$allocator@D@2@@1@H@Z@4HA 0000000180055450 f   test.obj
 0001:00054480       ?dtor$1@?0???0?$basic_stringstream@DU?$char_traits@D@std@@V?$allocator@D@2@@std@@QEAA@AEBV?$basic_string@DU?$char_traits@D@std@@V?$allocator@D@2@@1@H@Z@4HA 0000000180055480 f   test.obj
 0001:000544a0       ?dtor$0@?0???1?$basic_stringstream@DU?$char_traits@D@std@@V?$allocator@D@2@@std@@UEAA@XZ@4HA 00000001800554a0 f   test.obj
 0001:000544d0       ?dtor$0@?0???1?$basic_iostream@DU?$char_traits@D@std@@@std@@UEAA@XZ@4HA 00000001800554d0 f   test.obj
 0001:000544f0       ?dtor$0@?0???0?$_String_val@DV?$allocator@D@std@@@std@@QEAA@V?$allocator@D@1@@Z@4HA 00000001800554f0 f   test.obj
 0001:00054510       ?dtor$0@?0???1?$_String_val@DV?$allocator@D@std@@@std@@QEAA@XZ@4HA 0000000180055510 f   test.obj
 0001:00054530       ?dtor$0@?0???0system_error@std@@QEAA@Verror_code@1@PEBD@Z@4HA 0000000180055530 f   test.obj
 0001:00054550       ?dtor$0@?0???0?$basic_istream@DU?$char_traits@D@std@@@std@@QEAA@PEAV?$basic_streambuf@DU?$char_traits@D@std@@@1@_N@Z@4HA 0000000180055550 f   test.obj
 0001:00054580       ?dtor$0@?0??_Ipfx@?$basic_istream@DU?$char_traits@D@std@@@std@@QEAA_N_N@Z@4HA 0000000180055580 f   test.obj
 0001:000545a0       ?catch$0@?0??_Ipfx@?$basic_istream@DU?$char_traits@D@std@@@std@@QEAA_N_N@Z@4HA 00000001800555a0 f   test.obj
 0001:000545ad       __catch$?_Ipfx@?$basic_istream@DU?$char_traits@D@std@@@std@@QEAA_N_N@Z$0 00000001800555ad f   test.obj
 0001:000545f0       ?dtor$0@?0???1?$basic_filebuf@DU?$char_traits@D@std@@@std@@UEAA@XZ@4HA 00000001800555f0 f   test.obj
 0001:000545f0       ?dtor$0@?0???1?$basic_stringbuf@DU?$char_traits@D@std@@V?$allocator@D@2@@std@@UEAA@XZ@4HA 00000001800555f0 f   test.obj
 0001:000545f0       ?dtor$0@?0???0?$basic_filebuf@DU?$char_traits@D@std@@@std@@QEAA@PEAU_iobuf@@@Z@4HA 00000001800555f0 f   test.obj
 0001:00054610       ?dtor$0@?0??_Endwrite@?$basic_filebuf@DU?$char_traits@D@std@@@std@@IEAA_NXZ@4HA 0000000180055610 f   test.obj
 0001:00054630       ?dtor$1@?0??_Endwrite@?$basic_filebuf@DU?$char_traits@D@std@@@std@@IEAA_NXZ@4HA 0000000180055630 f   test.obj
 0001:00054650       ?dtor$2@?0??_Endwrite@?$basic_filebuf@DU?$char_traits@D@std@@@std@@IEAA_NXZ@4HA 0000000180055650 f   test.obj
 0001:00054670       ?dtor$3@?0??_Endwrite@?$basic_filebuf@DU?$char_traits@D@std@@@std@@IEAA_NXZ@4HA 0000000180055670 f   test.obj
 0001:00054690       ?dtor$4@?0??_Endwrite@?$basic_filebuf@DU?$char_traits@D@std@@@std@@IEAA_NXZ@4HA 0000000180055690 f   test.obj
 0001:000546c0       ?dtor$0@?0???0?$basic_iostream@DU?$char_traits@D@std@@@std@@QEAA@PEAV?$basic_streambuf@DU?$char_traits@D@std@@@1@@Z@4HA 00000001800556c0 f   test.obj
 0001:000546f0       ?dtor$1@?0???0?$basic_iostream@DU?$char_traits@D@std@@@std@@QEAA@PEAV?$basic_streambuf@DU?$char_traits@D@std@@@1@@Z@4HA 00000001800556f0 f   test.obj
 0001:00054710       ?dtor$0@?0???0?$basic_stringbuf@DU?$char_traits@D@std@@V?$allocator@D@2@@std@@QEAA@AEBV?$basic_string@DU?$char_traits@D@std@@V?$allocator@D@2@@1@H@Z@4HA 0000000180055710 f   test.obj
 0001:00054730       ?dtor$0@?0???0?$basic_ostream@DU?$char_traits@D@std@@@std@@QEAA@W4_Uninitialized@1@_N@Z@4HA 0000000180055730 f   test.obj
 0001:00054760       ?catch$0@?0??_Osfx@?$basic_ostream@DU?$char_traits@D@std@@@std@@QEAAXXZ@4HA 0000000180055760 f   test.obj
 0001:0005476d       __catch$?_Osfx@?$basic_ostream@DU?$char_traits@D@std@@@std@@QEAAXXZ$0 000000018005576d f   test.obj
 0001:00054780       ?dtor$0@?0???0?$basic_streambuf@DU?$char_traits@D@std@@@std@@IEAA@XZ@4HA 0000000180055780 f   test.obj
 0001:000547a0       ?catch$1@?0??_Copy@?$basic_string@DU?$char_traits@D@std@@V?$allocator@D@2@@std@@QEAAX_K0@Z@4HA 00000001800557a0 f   test.obj
 0001:000547ad       __catch$?_Copy@?$basic_string@DU?$char_traits@D@std@@V?$allocator@D@2@@std@@QEAAX_K0@Z$0 00000001800557ad f   test.obj
 0001:000547f0       ?catch$0@?0??_Copy@?$basic_string@DU?$char_traits@D@std@@V?$allocator@D@2@@std@@QEAAX_K0@Z@4HA 00000001800557f0 f   test.obj
 0001:000547fd       __catch$?_Copy@?$basic_string@DU?$char_traits@D@std@@V?$allocator@D@2@@std@@QEAAX_K0@Z$1 00000001800557fd f   test.obj
 0001:00054830       ?dtor$0@?0??widen@?$basic_ios@DU?$char_traits@D@std@@@std@@QEBADD@Z@4HA 0000000180055830 f   test.obj
 0001:00054830       ?dtor$0@?0??open@?$basic_filebuf@DU?$char_traits@D@std@@@std@@QEAAPEAV12@PEBDHH@Z@4HA 0000000180055830 f   test.obj
 0001:00054850       ?dtor$0@?0???0?$_String_const_iterator@DU?$char_traits@D@std@@V?$allocator@D@2@@std@@QEAA@PEBDPEBU_Container_base12@1@@Z@4HA 0000000180055850 f   test.obj
 0001:00054870       ?dtor$0@?0??_Adopt@_Iterator_base12@std@@QEAAXPEBU_Container_base12@2@@Z@4HA 0000000180055870 f   test.obj
 0001:00054890       ?dtor$0@?0??_Getcat@?$ctype@D@std@@SA_KPEAPEBVfacet@locale@2@PEBV42@@Z@4HA 0000000180055890 f   test.obj
 0001:000548c0       ?dtor$1@?0??_Getcat@?$ctype@D@std@@SA_KPEAPEBVfacet@locale@2@PEBV42@@Z@4HA 00000001800558c0 f   test.obj
 0001:000548f0       ?dtor$0@?0???0_Locinfo@std@@QEAA@PEBD@Z@4HA 00000001800558f0 f   test.obj
 0001:00054910       ?dtor$1@?0???0_Locinfo@std@@QEAA@PEBD@Z@4HA 0000000180055910 f   test.obj
 0001:00054930       ?dtor$2@?0???0_Locinfo@std@@QEAA@PEBD@Z@4HA 0000000180055930 f   test.obj
 0001:00054950       ?dtor$3@?0???0_Locinfo@std@@QEAA@PEBD@Z@4HA 0000000180055950 f   test.obj
 0001:00054970       ?dtor$4@?0???0_Locinfo@std@@QEAA@PEBD@Z@4HA 0000000180055970 f   test.obj
 0001:00054990       ?dtor$0@?0???1_Locinfo@std@@QEAA@XZ@4HA 0000000180055990 f   test.obj
 0001:000549b0       ?dtor$1@?0???1_Locinfo@std@@QEAA@XZ@4HA 00000001800559b0 f   test.obj
 0001:000549d0       ?dtor$2@?0???1_Locinfo@std@@QEAA@XZ@4HA 00000001800559d0 f   test.obj
 0001:000549f0       ?dtor$3@?0???1_Locinfo@std@@QEAA@XZ@4HA 00000001800559f0 f   test.obj
 0001:00054a10       ?dtor$4@?0???1_Locinfo@std@@QEAA@XZ@4HA 0000000180055a10 f   test.obj
 0001:00054a30       ?dtor$0@?0???1?$ctype@D@std@@MEAA@XZ@4HA 0000000180055a30 f   test.obj
 0001:00054a30       ?dtor$0@?0???0?$ctype@D@std@@QEAA@AEBV_Locinfo@1@_K@Z@4HA 0000000180055a30 f   test.obj
 0001:00054a50       ?dtor$0@?0???$?6U?$char_traits@D@std@@@std@@YAAEAV?$basic_ostream@DU?$char_traits@D@std@@@0@AEAV10@PEBD@Z@4HA 0000000180055a50 f   test.obj
 0001:00054a70       ?catch$0@?0???$?6U?$char_traits@D@std@@@std@@YAAEAV?$basic_ostream@DU?$char_traits@D@std@@@0@AEAV10@PEBD@Z@4HA 0000000180055a70 f   test.obj
 0001:00054a7d       __catch$??$?6U?$char_traits@D@std@@@std@@YAAEAV?$basic_ostream@DU?$char_traits@D@std@@@0@AEAV10@PEBD@Z$0 0000000180055a7d f   test.obj
 0001:00054ac0       ?dtor$0@?0???$use_facet@V?$ctype@D@std@@@std@@YAAEBV?$ctype@D@0@AEBVlocale@0@@Z@4HA 0000000180055ac0 f   test.obj
 0001:00054ac0       ?dtor$0@?0???$use_facet@V?$num_put@DV?$ostreambuf_iterator@DU?$char_traits@D@std@@@std@@@std@@@std@@YAAEBV?$num_put@DV?$ostreambuf_iterator@DU?$char_traits@D@std@@@std@@@0@AEBVlocale@0@@Z@4HA 0000000180055ac0 f   test.obj
 0001:00054ac0       ?dtor$0@?0???$use_facet@V?$num_get@DV?$istreambuf_iterator@DU?$char_traits@D@std@@@std@@@std@@@std@@YAAEBV?$num_get@DV?$istreambuf_iterator@DU?$char_traits@D@std@@@std@@@0@AEBVlocale@0@@Z@4HA 0000000180055ac0 f   test.obj
 0001:00054ac0       ?dtor$0@?0???$use_facet@V?$codecvt@DDH@std@@@std@@YAAEBV?$codecvt@DDH@0@AEBVlocale@0@@Z@4HA 0000000180055ac0 f   test.obj
 0001:00054ac0       ?dtor$0@?0???$use_facet@V?$numpunct@D@std@@@std@@YAAEBV?$numpunct@D@0@AEBVlocale@0@@Z@4HA 0000000180055ac0 f   test.obj
 0001:00054ae0       ?dtor$0@?0??_Getcat@?$num_put@DV?$ostreambuf_iterator@DU?$char_traits@D@std@@@std@@@std@@SA_KPEAPEBVfacet@locale@2@PEBV42@@Z@4HA 0000000180055ae0 f   test.obj
 0001:00054b10       ?dtor$1@?0??_Getcat@?$num_put@DV?$ostreambuf_iterator@DU?$char_traits@D@std@@@std@@@std@@SA_KPEAPEBVfacet@locale@2@PEBV42@@Z@4HA 0000000180055b10 f   test.obj
 0001:00054b40       ?dtor$0@?0??_Getcat@?$num_get@DV?$istreambuf_iterator@DU?$char_traits@D@std@@@std@@@std@@SA_KPEAPEBVfacet@locale@2@PEBV42@@Z@4HA 0000000180055b40 f   test.obj
 0001:00054b70       ?dtor$1@?0??_Getcat@?$num_get@DV?$istreambuf_iterator@DU?$char_traits@D@std@@@std@@@std@@SA_KPEAPEBVfacet@locale@2@PEBV42@@Z@4HA 0000000180055b70 f   test.obj
 0001:00054ba0       ?dtor$0@?0??_Getcat@?$codecvt@DDH@std@@SA_KPEAPEBVfacet@locale@2@PEBV42@@Z@4HA 0000000180055ba0 f   test.obj
 0001:00054bd0       ?dtor$1@?0??_Getcat@?$codecvt@DDH@std@@SA_KPEAPEBVfacet@locale@2@PEBV42@@Z@4HA 0000000180055bd0 f   test.obj
 0001:00054c00       ?dtor$0@?0??construct@?$allocator@U_Container_proxy@std@@@std@@QEAAXPEAU_Container_proxy@2@$$QEAU32@@Z@4HA 0000000180055c00 f   test.obj
 0001:00054c20       ?dtor$0@?0??do_put@?$num_put@DV?$ostreambuf_iterator@DU?$char_traits@D@std@@@std@@@std@@MEBA?AV?$ostreambuf_iterator@DU?$char_traits@D@std@@@2@V32@AEAVios_base@2@D_N@Z@4HA 0000000180055c20 f   test.obj
 0001:00054c40       ?dtor$1@?0??do_put@?$num_put@DV?$ostreambuf_iterator@DU?$char_traits@D@std@@@std@@@std@@MEBA?AV?$ostreambuf_iterator@DU?$char_traits@D@std@@@2@V32@AEAVios_base@2@D_N@Z@4HA 0000000180055c40 f   test.obj
 0001:00054c60       ?dtor$2@?0??do_put@?$num_put@DV?$ostreambuf_iterator@DU?$char_traits@D@std@@@std@@@std@@MEBA?AV?$ostreambuf_iterator@DU?$char_traits@D@std@@@2@V32@AEAVios_base@2@D_N@Z@4HA 0000000180055c60 f   test.obj
 0001:00054c80       ?dtor$3@?0??do_put@?$num_put@DV?$ostreambuf_iterator@DU?$char_traits@D@std@@@std@@@std@@MEBA?AV?$ostreambuf_iterator@DU?$char_traits@D@std@@@2@V32@AEAVios_base@2@D_N@Z@4HA 0000000180055c80 f   test.obj
 0001:00054ca0       ?dtor$0@?0??_Fput@?$num_put@DV?$ostreambuf_iterator@DU?$char_traits@D@std@@@std@@@std@@AEBA?AV?$ostreambuf_iterator@DU?$char_traits@D@std@@@2@V32@AEAVios_base@2@DPEBD_K333@Z@4HA 0000000180055ca0 f   test.obj
 0001:00054cc0       ?dtor$1@?0??_Fput@?$num_put@DV?$ostreambuf_iterator@DU?$char_traits@D@std@@@std@@@std@@AEBA?AV?$ostreambuf_iterator@DU?$char_traits@D@std@@@2@V32@AEAVios_base@2@DPEBD_K333@Z@4HA 0000000180055cc0 f   test.obj
 0001:00054ce0       ?dtor$2@?0??_Fput@?$num_put@DV?$ostreambuf_iterator@DU?$char_traits@D@std@@@std@@@std@@AEBA?AV?$ostreambuf_iterator@DU?$char_traits@D@std@@@2@V32@AEAVios_base@2@DPEBD_K333@Z@4HA 0000000180055ce0 f   test.obj
 0001:00054d00       ?dtor$0@?0??_Iput@?$num_put@DV?$ostreambuf_iterator@DU?$char_traits@D@std@@@std@@@std@@AEBA?AV?$ostreambuf_iterator@DU?$char_traits@D@std@@@2@V32@AEAVios_base@2@DPEAD_K@Z@4HA 0000000180055d00 f   test.obj
 0001:00054d20       ?dtor$1@?0??_Iput@?$num_put@DV?$ostreambuf_iterator@DU?$char_traits@D@std@@@std@@@std@@AEBA?AV?$ostreambuf_iterator@DU?$char_traits@D@std@@@2@V32@AEAVios_base@2@DPEAD_K@Z@4HA 0000000180055d20 f   test.obj
 0001:00054d40       ?dtor$0@?0??_Getcat@?$numpunct@D@std@@SA_KPEAPEBVfacet@locale@2@PEBV42@@Z@4HA 0000000180055d40 f   test.obj
 0001:00054d70       ?dtor$1@?0??_Getcat@?$numpunct@D@std@@SA_KPEAPEBVfacet@locale@2@PEBV42@@Z@4HA 0000000180055d70 f   test.obj
 0001:00054da0       ?dtor$0@?0??do_get@?$num_get@DV?$istreambuf_iterator@DU?$char_traits@D@std@@@std@@@std@@MEBA?AV?$istreambuf_iterator@DU?$char_traits@D@std@@@2@V32@0AEAVios_base@2@AEAHAEA_N@Z@4HA 0000000180055da0 f   test.obj
 0001:00054dc0       ?dtor$1@?0??do_get@?$num_get@DV?$istreambuf_iterator@DU?$char_traits@D@std@@@std@@@std@@MEBA?AV?$istreambuf_iterator@DU?$char_traits@D@std@@@2@V32@0AEAVios_base@2@AEAHAEA_N@Z@4HA 0000000180055dc0 f   test.obj
 0001:00054de0       ?dtor$2@?0??do_get@?$num_get@DV?$istreambuf_iterator@DU?$char_traits@D@std@@@std@@@std@@MEBA?AV?$istreambuf_iterator@DU?$char_traits@D@std@@@2@V32@0AEAVios_base@2@AEAHAEA_N@Z@4HA 0000000180055de0 f   test.obj
 0001:00054e00       ?dtor$3@?0??do_get@?$num_get@DV?$istreambuf_iterator@DU?$char_traits@D@std@@@std@@@std@@MEBA?AV?$istreambuf_iterator@DU?$char_traits@D@std@@@2@V32@0AEAVios_base@2@AEAHAEA_N@Z@4HA 0000000180055e00 f   test.obj
 0001:00054e20       ?dtor$4@?0??do_get@?$num_get@DV?$istreambuf_iterator@DU?$char_traits@D@std@@@std@@@std@@MEBA?AV?$istreambuf_iterator@DU?$char_traits@D@std@@@2@V32@0AEAVios_base@2@AEAHAEA_N@Z@4HA 0000000180055e20 f   test.obj
 0001:00054e40       ?dtor$0@?0??do_get@?$num_get@DV?$istreambuf_iterator@DU?$char_traits@D@std@@@std@@@std@@MEBA?AV?$istreambuf_iterator@DU?$char_traits@D@std@@@2@V32@0AEAVios_base@2@AEAHAEAG@Z@4HA 0000000180055e40 f   test.obj
 0001:00054e40       ?dtor$0@?0??do_get@?$num_get@DV?$istreambuf_iterator@DU?$char_traits@D@std@@@std@@@std@@MEBA?AV?$istreambuf_iterator@DU?$char_traits@D@std@@@2@V32@0AEAVios_base@2@AEAHAEAI@Z@4HA 0000000180055e40 f   test.obj
 0001:00054e60       ?dtor$0@?0??do_get@?$num_get@DV?$istreambuf_iterator@DU?$char_traits@D@std@@@std@@@std@@MEBA?AV?$istreambuf_iterator@DU?$char_traits@D@std@@@2@V32@0AEAVios_base@2@AEAHAEAJ@Z@4HA 0000000180055e60 f   test.obj
 0001:00054e60       ?dtor$0@?0??do_get@?$num_get@DV?$istreambuf_iterator@DU?$char_traits@D@std@@@std@@@std@@MEBA?AV?$istreambuf_iterator@DU?$char_traits@D@std@@@2@V32@0AEAVios_base@2@AEAHAEAK@Z@4HA 0000000180055e60 f   test.obj
 0001:00054e80       ?dtor$0@?0??do_get@?$num_get@DV?$istreambuf_iterator@DU?$char_traits@D@std@@@std@@@std@@MEBA?AV?$istreambuf_iterator@DU?$char_traits@D@std@@@2@V32@0AEAVios_base@2@AEAHAEA_K@Z@4HA 0000000180055e80 f   test.obj
 0001:00054e80       ?dtor$0@?0??do_get@?$num_get@DV?$istreambuf_iterator@DU?$char_traits@D@std@@@std@@@std@@MEBA?AV?$istreambuf_iterator@DU?$char_traits@D@std@@@2@V32@0AEAVios_base@2@AEAHAEAPEAX@Z@4HA 0000000180055e80 f   test.obj
 0001:00054e80       ?dtor$0@?0??do_get@?$num_get@DV?$istreambuf_iterator@DU?$char_traits@D@std@@@std@@@std@@MEBA?AV?$istreambuf_iterator@DU?$char_traits@D@std@@@2@V32@0AEAVios_base@2@AEAHAEA_J@Z@4HA 0000000180055e80 f   test.obj
 0001:00054ea0       ?dtor$0@?0??_Getifld@?$num_get@DV?$istreambuf_iterator@DU?$char_traits@D@std@@@std@@@std@@AEBAHPEADAEAV?$istreambuf_iterator@DU?$char_traits@D@std@@@2@1HAEBVlocale@2@@Z@4HA 0000000180055ea0 f   test.obj
 0001:00054ec0       ?dtor$1@?0??_Getifld@?$num_get@DV?$istreambuf_iterator@DU?$char_traits@D@std@@@std@@@std@@AEBAHPEADAEAV?$istreambuf_iterator@DU?$char_traits@D@std@@@2@1HAEBVlocale@2@@Z@4HA 0000000180055ec0 f   test.obj
 0001:00054ee0       ?dtor$0@?0??_Getffld@?$num_get@DV?$istreambuf_iterator@DU?$char_traits@D@std@@@std@@@std@@AEBAHPEADAEAV?$istreambuf_iterator@DU?$char_traits@D@std@@@2@1AEAVios_base@2@PEAH@Z@4HA 0000000180055ee0 f   test.obj
 0001:00054f00       ?dtor$1@?0??_Getffld@?$num_get@DV?$istreambuf_iterator@DU?$char_traits@D@std@@@std@@@std@@AEBAHPEADAEAV?$istreambuf_iterator@DU?$char_traits@D@std@@@2@1AEAVios_base@2@PEAH@Z@4HA 0000000180055f00 f   test.obj
 0001:00054f20       ?dtor$2@?0??_Getffld@?$num_get@DV?$istreambuf_iterator@DU?$char_traits@D@std@@@std@@@std@@AEBAHPEADAEAV?$istreambuf_iterator@DU?$char_traits@D@std@@@2@1AEAVios_base@2@PEAH@Z@4HA 0000000180055f20 f   test.obj
 0001:00054f40       ?dtor$0@?0??_Getffldx@?$num_get@DV?$istreambuf_iterator@DU?$char_traits@D@std@@@std@@@std@@AEBAHPEADAEAV?$istreambuf_iterator@DU?$char_traits@D@std@@@2@1AEAVios_base@2@PEAH@Z@4HA 0000000180055f40 f   test.obj
 0001:00054f60       ?dtor$1@?0??_Getffldx@?$num_get@DV?$istreambuf_iterator@DU?$char_traits@D@std@@@std@@@std@@AEBAHPEADAEAV?$istreambuf_iterator@DU?$char_traits@D@std@@@2@1AEAVios_base@2@PEAH@Z@4HA 0000000180055f60 f   test.obj
 0001:00054f80       ?dtor$2@?0??_Getffldx@?$num_get@DV?$istreambuf_iterator@DU?$char_traits@D@std@@@std@@@std@@AEBAHPEADAEAV?$istreambuf_iterator@DU?$char_traits@D@std@@@2@1AEAVios_base@2@PEAH@Z@4HA 0000000180055f80 f   test.obj
 0001:00054fa0       ?dtor$0@?0???$_Getloctxt@DV?$istreambuf_iterator@DU?$char_traits@D@std@@@std@@@std@@YAHAEAV?$istreambuf_iterator@DU?$char_traits@D@std@@@0@0_KPEBD@Z@4HA 0000000180055fa0 f   test.obj
 0001:00054fc0       ?dtor$0@?0???0?$codecvt@DDH@std@@QEAA@AEBV_Locinfo@1@_K@Z@4HA 0000000180055fc0 f   test.obj
 0001:00054fe0       ?dtor$0@?0???0?$num_get@DV?$istreambuf_iterator@DU?$char_traits@D@std@@@std@@@std@@QEAA@AEBV_Locinfo@1@_K@Z@4HA 0000000180055fe0 f   test.obj
 0001:00054fe0       ?dtor$0@?0???0?$numpunct@D@std@@QEAA@AEBV_Locinfo@1@_K_N@Z@4HA 0000000180055fe0 f   test.obj
 0001:00054fe0       ?dtor$0@?0???1?$numpunct@D@std@@MEAA@XZ@4HA 0000000180055fe0 f   test.obj
 0001:00054fe0       ?dtor$0@?0???0?$num_put@DV?$ostreambuf_iterator@DU?$char_traits@D@std@@@std@@@std@@QEAA@AEBV_Locinfo@1@_K@Z@4HA 0000000180055fe0 f   test.obj
 0001:00054fe0       ?dtor$0@?0???0_Locimp@locale@std@@AEAA@_N@Z@4HA 0000000180055fe0 f   test.obj
 0001:00055000       ?catch$0@?0??_Init@?$numpunct@D@std@@IEAAXAEBV_Locinfo@2@_N@Z@4HA 0000000180056000 f   test.obj
 0001:0005500d       __catch$?_Init@?$numpunct@D@std@@IEAAXAEBV_Locinfo@2@_N@Z$0 000000018005600d f   test.obj
 0001:00055040       ?dtor$0@?0???$getline@DU?$char_traits@D@std@@V?$allocator@D@2@@std@@YAAEAV?$basic_istream@DU?$char_traits@D@std@@@0@$$QEAV10@AEAV?$basic_string@DU?$char_traits@D@std@@V?$allocator@D@2@@0@D@Z@4HA 0000000180056040 f   test.obj
 0001:00055060       ?catch$0@?0???$getline@DU?$char_traits@D@std@@V?$allocator@D@2@@std@@YAAEAV?$basic_istream@DU?$char_traits@D@std@@@0@$$QEAV10@AEAV?$basic_string@DU?$char_traits@D@std@@V?$allocator@D@2@@0@D@Z@4HA 0000000180056060 f   test.obj
 0001:0005506d       __catch$??$getline@DU?$char_traits@D@std@@V?$allocator@D@2@@std@@YAAEAV?$basic_istream@DU?$char_traits@D@std@@@0@$$QEAV10@AEAV?$basic_string@DU?$char_traits@D@std@@V?$allocator@D@2@@0@D@Z$0 000000018005606d f   test.obj
 0001:000550b0       ?dtor$0@?0???0?$basic_ifstream@DU?$char_traits@D@std@@@std@@QEAA@XZ@4HA 00000001800560b0 f   test.obj
 0001:000550e0       ?dtor$1@?0???0?$basic_ifstream@DU?$char_traits@D@std@@@std@@QEAA@XZ@4HA 00000001800560e0 f   test.obj
 0001:00055100       ?dtor$0@?0???0?$basic_ofstream@DU?$char_traits@D@std@@@std@@QEAA@XZ@4HA 0000000180056100 f   test.obj
 0001:00055130       ?dtor$1@?0???0?$basic_ofstream@DU?$char_traits@D@std@@@std@@QEAA@XZ@4HA 0000000180056130 f   test.obj
 0001:00055150       ?dtor$0@?0???1?$basic_ofstream@DU?$char_traits@D@std@@@std@@UEAA@XZ@4HA 0000000180056150 f   test.obj
 0001:00055180       ?dtor$0@?0???0?$basic_ostream@DU?$char_traits@D@std@@@std@@QEAA@PEAV?$basic_streambuf@DU?$char_traits@D@std@@@1@_N@Z@4HA 0000000180056180 f   test.obj
 0001:000551b0       ?dtor$0@?0??loadFromFile@LTexture@@QEAA_NV?$basic_string@DU?$char_traits@D@std@@V?$allocator@D@2@@std@@@Z@4HA 00000001800561b0 f   LTexture.obj
 0001:000551d0       ?dtor$0@?0??_Facet_Register@facet@locale@std@@CAXPEAV123@@Z@4HA 00000001800561d0 f   libcpmtd:locale0.obj
 0001:00055200       ?dtor$0@?0???1_Locimp@locale@std@@MEAA@XZ@4HA 0000000180056200 f   libcpmtd:locale0.obj
 0001:00055220       ?dtor$1@?0???1_Locimp@locale@std@@MEAA@XZ@4HA 0000000180056220 f   libcpmtd:locale0.obj
 0001:00055240       ?dtor$0@?0??_Init@locale@std@@CAPEAV_Locimp@12@XZ@4HA 0000000180056240 f   libcpmtd:locale0.obj
 0001:00055260       ?dtor$1@?0??_Init@locale@std@@CAPEAV_Locimp@12@XZ@4HA 0000000180056260 f   libcpmtd:locale0.obj
 0001:00055290       ?dtor$2@?0??_Init@locale@std@@CAPEAV_Locimp@12@XZ@4HA 0000000180056290 f   libcpmtd:locale0.obj
 0001:000552b0       ?dtor$0@?0??_Locimp_dtor@_Locimp@locale@std@@CAXPEAV123@@Z@4HA 00000001800562b0 f   libcpmtd:locale0.obj
 0001:000552b0       ?dtor$0@?0??_Fac_tidy@@YAXXZ@4HA 00000001800562b0 f   libcpmtd:locale0.obj
 0001:000552b0       ?dtor$0@?0???1_Iterator_base12@std@@QEAA@XZ@4HA 00000001800562b0 f   libcpmtd:locale0.obj
 0001:000552d0       printf$fin$0               00000001800562d0 f   LIBCMTD:printf.obj
 0001:00055300       doexit$fin$0               0000000180056300 f   LIBCMTD:crt0dat.obj
 0001:00055320       ?fin$0@?0???_M@YAXPEAX_KHP6AX0@Z@Z@4HA 0000000180056320 f   LIBCMTD:ehvecdtr.obj
 0001:00055350       ?filt$0@?0??__ArrayUnwind@@YAXPEAX_KHP6AX0@Z@Z@4HA 0000000180056350 f   LIBCMTD:ehvecdtr.obj
 0001:00055380       ?fin$0@?0???_L@YAXPEAX_KHP6AX0@Z2@Z@4HA 0000000180056380 f   LIBCMTD:ehvecctr.obj
 0001:000553b0       _CallSETranslator$filt$0   00000001800563b0 f   LIBCMTD:trnsctrl.obj
 0001:00055410       fwrite$fin$0               0000000180056410 f   LIBCMTD:fwrite.obj
 0001:00055430       fputc$fin$0                0000000180056430 f   LIBCMTD:fputc.obj
 0001:00055450       ungetc$fin$0               0000000180056450 f   LIBCMTD:ungetc.obj
 0001:00055470       fgetc$fin$0                0000000180056470 f   LIBCMTD:fgetc.obj
 0001:00055490       setvbuf$fin$0              0000000180056490 f   LIBCMTD:setvbuf.obj
 0001:00055490       _fsopen$fin$0              0000000180056490 f   LIBCMTD:setvbuf.obj
 0001:000554b0       fflush$fin$0               00000001800564b0 f   LIBCMTD:fflush.obj
 0001:000554d0       flsall$fin$0               00000001800564d0 f   LIBCMTD:fflush.obj
 0001:00055500       flsall$fin$1               0000000180056500 f   LIBCMTD:fflush.obj
 0001:00055520       _free_dbg$fin$0            0000000180056520 f   LIBCMTD:dbgheap.obj
 0001:00055540       _CrtCheckMemory$fin$0      0000000180056540 f   LIBCMTD:dbgheap.obj
 0001:00055560       _CrtSetDbgFlag$fin$0       0000000180056560 f   LIBCMTD:dbgheap.obj
 0001:00055560       _realloc_dbg$fin$0         0000000180056560 f   LIBCMTD:dbgheap.obj
 0001:00055560       _msize_dbg$fin$0           0000000180056560 f   LIBCMTD:dbgheap.obj
 0001:00055560       ?fin$0@?0???3@YAXPEAX@Z@4HA 0000000180056560 f   LIBCMTD:dbgheap.obj
 0001:00055580       ?fin$0@?0??_CrtMemDumpAllObjectsSince_stat@@YAXPEBU_CrtMemState@@PEAUlocaleinfo_struct@@@Z@4HA 0000000180056580 f   LIBCMTD:dbgheap.obj
 0001:00055580       _CrtMemCheckpoint$fin$0    0000000180056580 f   LIBCMTD:dbgheap.obj
 0001:00055580       _heap_alloc_dbg_impl$fin$0 0000000180056580 f   LIBCMTD:dbgheap.obj
 0001:000555a0       _onexit$fin$0              00000001800565a0 f   LIBCMTD:onexit.obj
 0001:000555c0       _CRT_INIT$fin$0            00000001800565c0 f   LIBCMTD:dllcrt0.obj
 0001:000555f0       __DllMainCRTStartup$filt$0 00000001800565f0 f   LIBCMTD:dllcrt0.obj
 0001:00055620       fseek$fin$0                0000000180056620 f   LIBCMTD:fseek.obj
 0001:00055620       _fseeki64$fin$0            0000000180056620 f   LIBCMTD:fseek.obj
 0001:00055640       __FrameUnwindToState$filt$0 0000000180056640 f   LIBCMTD:frame.obj
 0001:00055670       __FrameUnwindToState$fin$1 0000000180056670 f   LIBCMTD:frame.obj
 0001:000556b0       __CxxCallCatchBlock$filt$0 00000001800566b0 f   LIBCMTD:frame.obj
 0001:000556e0       __CxxCallCatchBlock$fin$1  00000001800566e0 f   LIBCMTD:frame.obj
 0001:00055780       ?filt$0@?0??terminate@@YAXXZ@4HA 0000000180056780 f   LIBCMTD:frame.obj
 0001:00055780       __BuildCatchObjectHelper$filt$0 0000000180056780 f   LIBCMTD:frame.obj
 0001:00055780       __BuildCatchObject$filt$0  0000000180056780 f   LIBCMTD:frame.obj
 0001:00055780       ?filt$0@?0??_inconsistency@@YAXXZ@4HA 0000000180056780 f   LIBCMTD:frame.obj
 0001:000557a0       __DestructExceptionObject$filt$0 00000001800567a0 f   LIBCMTD:frame.obj
 0001:000557d0       _free_locale$fin$0         00000001800567d0 f   LIBCMTD:setlocal.obj
 0001:000557d0       _freefls$fin$0             00000001800567d0 f   LIBCMTD:setlocal.obj
 0001:000557d0       _initptd$fin$0             00000001800567d0 f   LIBCMTD:setlocal.obj
 0001:000557f0       _initptd$fin$1             00000001800567f0 f   LIBCMTD:setlocal.obj
 0001:000557f0       _freefls$fin$1             00000001800567f0 f   LIBCMTD:setlocal.obj
 0001:000557f0       _free_locale$fin$1         00000001800567f0 f   LIBCMTD:setlocal.obj
 0001:00055810       setlocale$fin$0            0000000180056810 f   LIBCMTD:setlocal.obj
 0001:00055830       setlocale$fin$1            0000000180056830 f   LIBCMTD:setlocal.obj
 0001:00055850       setlocale$fin$2            0000000180056850 f   LIBCMTD:setlocal.obj
 0001:00055880       _IsNonwritableInCurrentImage$filt$0 0000000180056880 f   LIBCMTD:pesect.obj
 0001:000558c0       __updatetmbcinfo$fin$0     00000001800568c0 f   LIBCMTD:mbctype.obj
 0001:000558c0       _setmbcp$fin$0             00000001800568c0 f   LIBCMTD:mbctype.obj
 0001:000558e0       ?dtor$0@?0??getSystemCP@@YAHH@Z@4HA 00000001800568e0 f   LIBCMTD:mbctype.obj
 0001:00055900       __lock_fhandle$fin$0       0000000180056900 f   LIBCMTD:mlock.obj
 0001:00055900       _mtinitlocknum$fin$0       0000000180056900 f   LIBCMTD:mlock.obj
 0001:00055920       raise$fin$0                0000000180056920 f   LIBCMTD:winsig.obj
 0001:00055940       _getstream$fin$0           0000000180056940 f   LIBCMTD:closeall.obj
 0001:00055940       _fcloseall$fin$0           0000000180056940 f   LIBCMTD:closeall.obj
 0001:00055960       _ftelli64$fin$0            0000000180056960 f   LIBCMTD:ftelli64.obj
 0001:00055960       fclose$fin$0               0000000180056960 f   LIBCMTD:ftelli64.obj
 0001:00055980       _commit$fin$0              0000000180056980 f   LIBCMTD:commit.obj
 0001:00055980       _read$fin$0                0000000180056980 f   LIBCMTD:commit.obj
 0001:00055980       _close$fin$0               0000000180056980 f   LIBCMTD:commit.obj
 0001:00055980       _lseek$fin$0               0000000180056980 f   LIBCMTD:commit.obj
 0001:00055980       _lseeki64$fin$0            0000000180056980 f   LIBCMTD:commit.obj
 0001:00055980       _write$fin$0               0000000180056980 f   LIBCMTD:commit.obj
 0001:000559a0       ?fin$0@?0??_Type_info_dtor@type_info@@CAXPEAV1@@Z@4HA 00000001800569a0 f   LIBCMTD:typname.obj
 0001:000559c0       _VCrtDbgReportA$fin$0      00000001800569c0 f   LIBCMTD:dbgrptt.obj
 0001:000559e0       _VCrtDbgReportA$fin$1      00000001800569e0 f   LIBCMTD:dbgrptt.obj
 0001:00055a10       _VCrtDbgReportW$fin$0      0000000180056a10 f   LIBCMTD:dbgrptt.obj
 0001:00055a30       _VCrtDbgReportW$fin$1      0000000180056a30 f   LIBCMTD:dbgrptt.obj
 0001:00055a60       __updatetlocinfo$fin$0     0000000180056a60 f   LIBCMTD:localref.obj
 0001:00055a60       _locterm$fin$0             0000000180056a60 f   LIBCMTD:localref.obj
 0001:00055a80       _ctrlfp$filt$0             0000000180056a80 f   LIBCMTD:_fpctrl_.obj
 0001:00055ad0       fwprintf$fin$0             0000000180056ad0 f   LIBCMTD:fwprintf.obj
 0001:00055af0       _alloc_osfhnd$fin$0        0000000180056af0 f   LIBCMTD:osfinfo.obj
 0001:00055b10       _alloc_osfhnd$fin$1        0000000180056b10 f   LIBCMTD:osfinfo.obj
 0001:00055b30       ?dtor$0@?0??x_ismbbtype_l@@YAHPEAUlocaleinfo_struct@@IHH@Z@4HA 0000000180056b30 f   LIBCMTD:ismbbyte.obj
 0001:00055b50       _sopen_helper$fin$0        0000000180056b50 f   LIBCMTD:open.obj
 0001:00055bf0       ?dtor$0@?0??strtoxl@@YAKPEAUlocaleinfo_struct@@PEBDPEAPEBDHH@Z@4HA 0000000180056bf0 f   LIBCMTD:strtol.obj
 0001:00055c10       ??__Ekeystate@@YAXXZ       0000000180056c10 f   test.obj
 0001:00055c30       ??__Eimg@@YAXXZ            0000000180056c30 f   test.obj
 0001:00055c60       ??__Efile_load@@YAXXZ      0000000180056c60 f   test.obj
 0001:00055c90       ??__Efile_save@@YAXXZ      0000000180056c90 f   test.obj
 0001:00055cc0       ??__Efile_num@@YAXXZ       0000000180056cc0 f   test.obj
 0001:00055cf0       ??__Eflip@@YAXXZ           0000000180056cf0 f   test.obj
 0001:00055d00       ??__E?id@?$num_put@DV?$ostreambuf_iterator@DU?$char_traits@D@std@@@std@@@std@@2V0locale@2@A@@YAXXZ 0000000180056d00 f   test.obj
 0001:00055d20       ??__E?id@?$num_get@DV?$istreambuf_iterator@DU?$char_traits@D@std@@@std@@@std@@2V0locale@2@A@@YAXXZ 0000000180056d20 f   test.obj
 0001:00055d40       ??__E?id@?$codecvt@DDH@std@@2V0locale@2@A@@YAXXZ 0000000180056d40 f   test.obj
 0001:00055d60       ??__E?id@?$numpunct@D@std@@2V0locale@2@A@@YAXXZ 0000000180056d60 f   test.obj
 0001:00055d80       ??__Einitlocks@std@@YAXXZ  0000000180056d80 f   libcpmtd:xlock.obj
 0001:00055db0       ??__E_Generic_object@std@@YAXXZ 0000000180056db0 f   libcpmtd:syserror.obj
 0001:00055de0       ??__E_Iostream_object@std@@YAXXZ 0000000180056de0 f   libcpmtd:syserror.obj
 0001:00055e10       ??__E_System_object@std@@YAXXZ 0000000180056e10 f   libcpmtd:syserror.obj
 0001:00055e40       ??__E_Fac_tidy_reg@std@@YAXXZ 0000000180056e40 f   libcpmtd:locale0.obj
 0001:00055e60       ??__Eclassic_locale@std@@YAXXZ 0000000180056e60 f   libcpmtd:locale0.obj
 0001:00055e90       ??__E?id@?$ctype@D@std@@2V0locale@2@A@@YAXXZ 0000000180056e90 f   libcpmtd:locale0.obj
 0001:00055eb0       ??__E?id@?$ctype@_W@std@@2V0locale@2@A@@YAXXZ 0000000180056eb0 f   libcpmtd:locale0.obj
 0001:00055ed0       ??__E?id@?$codecvt@_WDH@std@@2V0locale@2@A@@YAXXZ 0000000180056ed0 f   libcpmtd:locale0.obj
 0001:00055ef0       ??__E?id@?$ctype@G@std@@2V0locale@2@A@@YAXXZ 0000000180056ef0 f   libcpmtd:locale0.obj
 0001:00055f10       ??__E?id@?$codecvt@GDH@std@@2V0locale@2@A@@YAXXZ 0000000180056f10 f   libcpmtd:locale0.obj
 0001:00055f30       ??__Einitlocks@std@@YAXXZ  0000000180056f30 f   libcpmtd:iosptrs.obj
 0001:00055f60       ??__Einit_atexit@@YAXXZ    0000000180056f60 f   libcpmtd:iosptrs.obj
 0001:00055f80       ??__Fimg@@YAXXZ            0000000180056f80 f   test.obj
 0001:00055fa0       ??__Ffile_load@@YAXXZ      0000000180056fa0 f   test.obj
 0001:00055fc0       ??__Ffile_save@@YAXXZ      0000000180056fc0 f   test.obj
 0001:00055fe0       ??__Ffile_num@@YAXXZ       0000000180056fe0 f   test.obj
 0001:00056000       ??__Finitlocks@std@@YAXXZ  0000000180057000 f   libcpmtd:xlock.obj
 0001:00056020       ??__F_Generic_object@std@@YAXXZ 0000000180057020 f   libcpmtd:syserror.obj
 0001:00056040       ??__F_Iostream_object@std@@YAXXZ 0000000180057040 f   libcpmtd:syserror.obj
 0001:00056060       ??__F_System_object@std@@YAXXZ 0000000180057060 f   libcpmtd:syserror.obj
 0001:00056080       ??__Fnomem@?4???2@YAPEAX_KAEBU_DebugHeapTag_t@std@@PEADH@Z@YAXXZ 0000000180057080 f   libcpmtd:xdebug.obj
 0001:000560a0       ??__F_Fac_tidy_reg@std@@YAXXZ 00000001800570a0 f   libcpmtd:locale0.obj
 0001:000560c0       ??__Fclassic_locale@std@@YAXXZ 00000001800570c0 f   libcpmtd:locale0.obj
 0001:000560e0       ??__Finitlocks@std@@YAXXZ  00000001800570e0 f   libcpmtd:iosptrs.obj
 0001:00056100       ??__Finit_atexit@@YAXXZ    0000000180057100 f   libcpmtd:iosptrs.obj
 0001:00056120       ??__Fnomem@?5???2@YAPEAX_K@Z@YAXXZ 0000000180057120 f   LIBCMTD:new.obj
